
build/kernel.bin：     文件格式 elf32-i386


Disassembly of section .text:

c0001500 <main>:
c0001500:	f3 0f 1e fb          	endbr32 
c0001504:	8d 4c 24 04          	lea    0x4(%esp),%ecx
c0001508:	83 e4 f0             	and    $0xfffffff0,%esp
c000150b:	ff 71 fc             	pushl  -0x4(%ecx)
c000150e:	55                   	push   %ebp
c000150f:	89 e5                	mov    %esp,%ebp
c0001511:	53                   	push   %ebx
c0001512:	51                   	push   %ecx
c0001513:	e8 60 01 00 00       	call   c0001678 <__x86.get_pc_thunk.bx>
c0001518:	81 c3 e8 6a 00 00    	add    $0x6ae8,%ebx
c000151e:	83 ec 0c             	sub    $0xc,%esp
c0001521:	8d 83 00 d0 ff ff    	lea    -0x3000(%ebx),%eax
c0001527:	50                   	push   %eax
c0001528:	e8 96 0e 00 00       	call   c00023c3 <put_str>
c000152d:	83 c4 10             	add    $0x10,%esp
c0001530:	e8 47 01 00 00       	call   c000167c <init_all>
c0001535:	8d 83 0d d0 ff ff    	lea    -0x2ff3(%ebx),%eax
c000153b:	50                   	push   %eax
c000153c:	8d 83 ac 95 ff ff    	lea    -0x6a54(%ebx),%eax
c0001542:	50                   	push   %eax
c0001543:	6a 08                	push   $0x8
c0001545:	8d 83 14 d0 ff ff    	lea    -0x2fec(%ebx),%eax
c000154b:	50                   	push   %eax
c000154c:	e8 bf 21 00 00       	call   c0003710 <thread_start>
c0001551:	83 c4 10             	add    $0x10,%esp
c0001554:	8d 83 1f d0 ff ff    	lea    -0x2fe1(%ebx),%eax
c000155a:	50                   	push   %eax
c000155b:	8d 83 ee 95 ff ff    	lea    -0x6a12(%ebx),%eax
c0001561:	50                   	push   %eax
c0001562:	6a 08                	push   $0x8
c0001564:	8d 83 26 d0 ff ff    	lea    -0x2fda(%ebx),%eax
c000156a:	50                   	push   %eax
c000156b:	e8 a0 21 00 00       	call   c0003710 <thread_start>
c0001570:	83 c4 10             	add    $0x10,%esp
c0001573:	83 ec 08             	sub    $0x8,%esp
c0001576:	8d 83 31 d0 ff ff    	lea    -0x2fcf(%ebx),%eax
c000157c:	50                   	push   %eax
c000157d:	8d 83 30 96 ff ff    	lea    -0x69d0(%ebx),%eax
c0001583:	50                   	push   %eax
c0001584:	e8 2f 38 00 00       	call   c0004db8 <process_execute>
c0001589:	83 c4 10             	add    $0x10,%esp
c000158c:	83 ec 08             	sub    $0x8,%esp
c000158f:	8d 83 3d d0 ff ff    	lea    -0x2fc3(%ebx),%eax
c0001595:	50                   	push   %eax
c0001596:	8d 83 52 96 ff ff    	lea    -0x69ae(%ebx),%eax
c000159c:	50                   	push   %eax
c000159d:	e8 16 38 00 00       	call   c0004db8 <process_execute>
c00015a2:	83 c4 10             	add    $0x10,%esp
c00015a5:	e8 2a 05 00 00       	call   c0001ad4 <intr_enable>
c00015aa:	eb fe                	jmp    c00015aa <main+0xaa>

c00015ac <k_thread_a>:
c00015ac:	f3 0f 1e fb          	endbr32 
c00015b0:	55                   	push   %ebp
c00015b1:	89 e5                	mov    %esp,%ebp
c00015b3:	53                   	push   %ebx
c00015b4:	83 ec 14             	sub    $0x14,%esp
c00015b7:	e8 bc 00 00 00       	call   c0001678 <__x86.get_pc_thunk.bx>
c00015bc:	81 c3 44 6a 00 00    	add    $0x6a44,%ebx
c00015c2:	8b 45 08             	mov    0x8(%ebp),%eax
c00015c5:	89 45 f4             	mov    %eax,-0xc(%ebp)
c00015c8:	83 ec 0c             	sub    $0xc,%esp
c00015cb:	8d 83 49 d0 ff ff    	lea    -0x2fb7(%ebx),%eax
c00015d1:	50                   	push   %eax
c00015d2:	e8 da 2c 00 00       	call   c00042b1 <console_put_str>
c00015d7:	83 c4 10             	add    $0x10,%esp
c00015da:	8b 83 80 01 00 00    	mov    0x180(%ebx),%eax
c00015e0:	83 ec 0c             	sub    $0xc,%esp
c00015e3:	50                   	push   %eax
c00015e4:	e8 38 2d 00 00       	call   c0004321 <console_put_int>
c00015e9:	83 c4 10             	add    $0x10,%esp
c00015ec:	eb da                	jmp    c00015c8 <k_thread_a+0x1c>

c00015ee <k_thread_b>:
c00015ee:	f3 0f 1e fb          	endbr32 
c00015f2:	55                   	push   %ebp
c00015f3:	89 e5                	mov    %esp,%ebp
c00015f5:	53                   	push   %ebx
c00015f6:	83 ec 14             	sub    $0x14,%esp
c00015f9:	e8 7a 00 00 00       	call   c0001678 <__x86.get_pc_thunk.bx>
c00015fe:	81 c3 02 6a 00 00    	add    $0x6a02,%ebx
c0001604:	8b 45 08             	mov    0x8(%ebp),%eax
c0001607:	89 45 f4             	mov    %eax,-0xc(%ebp)
c000160a:	83 ec 0c             	sub    $0xc,%esp
c000160d:	8d 83 51 d0 ff ff    	lea    -0x2faf(%ebx),%eax
c0001613:	50                   	push   %eax
c0001614:	e8 98 2c 00 00       	call   c00042b1 <console_put_str>
c0001619:	83 c4 10             	add    $0x10,%esp
c000161c:	8b 83 84 01 00 00    	mov    0x184(%ebx),%eax
c0001622:	83 ec 0c             	sub    $0xc,%esp
c0001625:	50                   	push   %eax
c0001626:	e8 f6 2c 00 00       	call   c0004321 <console_put_int>
c000162b:	83 c4 10             	add    $0x10,%esp
c000162e:	eb da                	jmp    c000160a <k_thread_b+0x1c>

c0001630 <u_prog_a>:
c0001630:	f3 0f 1e fb          	endbr32 
c0001634:	55                   	push   %ebp
c0001635:	89 e5                	mov    %esp,%ebp
c0001637:	e8 38 00 00 00       	call   c0001674 <__x86.get_pc_thunk.ax>
c000163c:	05 c4 69 00 00       	add    $0x69c4,%eax
c0001641:	8b 90 80 01 00 00    	mov    0x180(%eax),%edx
c0001647:	83 c2 01             	add    $0x1,%edx
c000164a:	89 90 80 01 00 00    	mov    %edx,0x180(%eax)
c0001650:	eb ef                	jmp    c0001641 <u_prog_a+0x11>

c0001652 <u_prog_b>:
c0001652:	f3 0f 1e fb          	endbr32 
c0001656:	55                   	push   %ebp
c0001657:	89 e5                	mov    %esp,%ebp
c0001659:	e8 16 00 00 00       	call   c0001674 <__x86.get_pc_thunk.ax>
c000165e:	05 a2 69 00 00       	add    $0x69a2,%eax
c0001663:	8b 90 84 01 00 00    	mov    0x184(%eax),%edx
c0001669:	83 c2 01             	add    $0x1,%edx
c000166c:	89 90 84 01 00 00    	mov    %edx,0x184(%eax)
c0001672:	eb ef                	jmp    c0001663 <u_prog_b+0x11>

c0001674 <__x86.get_pc_thunk.ax>:
c0001674:	8b 04 24             	mov    (%esp),%eax
c0001677:	c3                   	ret    

c0001678 <__x86.get_pc_thunk.bx>:
c0001678:	8b 1c 24             	mov    (%esp),%ebx
c000167b:	c3                   	ret    

c000167c <init_all>:
c000167c:	f3 0f 1e fb          	endbr32 
c0001680:	55                   	push   %ebp
c0001681:	89 e5                	mov    %esp,%ebp
c0001683:	53                   	push   %ebx
c0001684:	83 ec 04             	sub    $0x4,%esp
c0001687:	e8 ec ff ff ff       	call   c0001678 <__x86.get_pc_thunk.bx>
c000168c:	81 c3 74 69 00 00    	add    $0x6974,%ebx
c0001692:	83 ec 0c             	sub    $0xc,%esp
c0001695:	8d 83 59 d0 ff ff    	lea    -0x2fa7(%ebx),%eax
c000169b:	50                   	push   %eax
c000169c:	e8 22 0d 00 00       	call   c00023c3 <put_str>
c00016a1:	83 c4 10             	add    $0x10,%esp
c00016a4:	e8 1d 05 00 00       	call   c0001bc6 <idt_init>
c00016a9:	e8 d1 18 00 00       	call   c0002f7f <mem_init>
c00016ae:	e8 f1 24 00 00       	call   c0003ba4 <thread_init>
c00016b3:	e8 e9 06 00 00       	call   c0001da1 <timer_init>
c00016b8:	e8 67 2b 00 00       	call   c0004224 <console_init>
c00016bd:	e8 3f 2f 00 00       	call   c0004601 <keyboard_init>
c00016c2:	e8 0b 33 00 00       	call   c00049d2 <tss_init>
c00016c7:	90                   	nop
c00016c8:	8b 5d fc             	mov    -0x4(%ebp),%ebx
c00016cb:	c9                   	leave  
c00016cc:	c3                   	ret    

c00016cd <outb>:
c00016cd:	55                   	push   %ebp
c00016ce:	89 e5                	mov    %esp,%ebp
c00016d0:	83 ec 08             	sub    $0x8,%esp
c00016d3:	e8 9c ff ff ff       	call   c0001674 <__x86.get_pc_thunk.ax>
c00016d8:	05 28 69 00 00       	add    $0x6928,%eax
c00016dd:	8b 45 08             	mov    0x8(%ebp),%eax
c00016e0:	8b 55 0c             	mov    0xc(%ebp),%edx
c00016e3:	66 89 45 fc          	mov    %ax,-0x4(%ebp)
c00016e7:	89 d0                	mov    %edx,%eax
c00016e9:	88 45 f8             	mov    %al,-0x8(%ebp)
c00016ec:	0f b6 45 f8          	movzbl -0x8(%ebp),%eax
c00016f0:	0f b7 55 fc          	movzwl -0x4(%ebp),%edx
c00016f4:	ee                   	out    %al,(%dx)
c00016f5:	90                   	nop
c00016f6:	c9                   	leave  
c00016f7:	c3                   	ret    

c00016f8 <pic_init>:
c00016f8:	f3 0f 1e fb          	endbr32 
c00016fc:	55                   	push   %ebp
c00016fd:	89 e5                	mov    %esp,%ebp
c00016ff:	53                   	push   %ebx
c0001700:	83 ec 04             	sub    $0x4,%esp
c0001703:	e8 70 ff ff ff       	call   c0001678 <__x86.get_pc_thunk.bx>
c0001708:	81 c3 f8 68 00 00    	add    $0x68f8,%ebx
c000170e:	6a 11                	push   $0x11
c0001710:	6a 20                	push   $0x20
c0001712:	e8 b6 ff ff ff       	call   c00016cd <outb>
c0001717:	83 c4 08             	add    $0x8,%esp
c000171a:	6a 20                	push   $0x20
c000171c:	6a 21                	push   $0x21
c000171e:	e8 aa ff ff ff       	call   c00016cd <outb>
c0001723:	83 c4 08             	add    $0x8,%esp
c0001726:	6a 04                	push   $0x4
c0001728:	6a 21                	push   $0x21
c000172a:	e8 9e ff ff ff       	call   c00016cd <outb>
c000172f:	83 c4 08             	add    $0x8,%esp
c0001732:	6a 01                	push   $0x1
c0001734:	6a 21                	push   $0x21
c0001736:	e8 92 ff ff ff       	call   c00016cd <outb>
c000173b:	83 c4 08             	add    $0x8,%esp
c000173e:	6a 11                	push   $0x11
c0001740:	68 a0 00 00 00       	push   $0xa0
c0001745:	e8 83 ff ff ff       	call   c00016cd <outb>
c000174a:	83 c4 08             	add    $0x8,%esp
c000174d:	6a 28                	push   $0x28
c000174f:	68 a1 00 00 00       	push   $0xa1
c0001754:	e8 74 ff ff ff       	call   c00016cd <outb>
c0001759:	83 c4 08             	add    $0x8,%esp
c000175c:	6a 02                	push   $0x2
c000175e:	68 a1 00 00 00       	push   $0xa1
c0001763:	e8 65 ff ff ff       	call   c00016cd <outb>
c0001768:	83 c4 08             	add    $0x8,%esp
c000176b:	6a 01                	push   $0x1
c000176d:	68 a1 00 00 00       	push   $0xa1
c0001772:	e8 56 ff ff ff       	call   c00016cd <outb>
c0001777:	83 c4 08             	add    $0x8,%esp
c000177a:	68 fc 00 00 00       	push   $0xfc
c000177f:	6a 21                	push   $0x21
c0001781:	e8 47 ff ff ff       	call   c00016cd <outb>
c0001786:	83 c4 08             	add    $0x8,%esp
c0001789:	68 ff 00 00 00       	push   $0xff
c000178e:	68 a1 00 00 00       	push   $0xa1
c0001793:	e8 35 ff ff ff       	call   c00016cd <outb>
c0001798:	83 c4 08             	add    $0x8,%esp
c000179b:	83 ec 0c             	sub    $0xc,%esp
c000179e:	8d 83 64 d0 ff ff    	lea    -0x2f9c(%ebx),%eax
c00017a4:	50                   	push   %eax
c00017a5:	e8 19 0c 00 00       	call   c00023c3 <put_str>
c00017aa:	83 c4 10             	add    $0x10,%esp
c00017ad:	90                   	nop
c00017ae:	8b 5d fc             	mov    -0x4(%ebp),%ebx
c00017b1:	c9                   	leave  
c00017b2:	c3                   	ret    

c00017b3 <make_idt_desc>:
c00017b3:	f3 0f 1e fb          	endbr32 
c00017b7:	55                   	push   %ebp
c00017b8:	89 e5                	mov    %esp,%ebp
c00017ba:	83 ec 04             	sub    $0x4,%esp
c00017bd:	e8 b2 fe ff ff       	call   c0001674 <__x86.get_pc_thunk.ax>
c00017c2:	05 3e 68 00 00       	add    $0x683e,%eax
c00017c7:	8b 45 0c             	mov    0xc(%ebp),%eax
c00017ca:	88 45 fc             	mov    %al,-0x4(%ebp)
c00017cd:	8b 45 10             	mov    0x10(%ebp),%eax
c00017d0:	89 c2                	mov    %eax,%edx
c00017d2:	8b 45 08             	mov    0x8(%ebp),%eax
c00017d5:	66 89 10             	mov    %dx,(%eax)
c00017d8:	8b 45 08             	mov    0x8(%ebp),%eax
c00017db:	66 c7 40 02 08 00    	movw   $0x8,0x2(%eax)
c00017e1:	8b 45 08             	mov    0x8(%ebp),%eax
c00017e4:	c6 40 04 00          	movb   $0x0,0x4(%eax)
c00017e8:	8b 45 08             	mov    0x8(%ebp),%eax
c00017eb:	0f b6 55 fc          	movzbl -0x4(%ebp),%edx
c00017ef:	88 50 05             	mov    %dl,0x5(%eax)
c00017f2:	8b 45 10             	mov    0x10(%ebp),%eax
c00017f5:	c1 e8 10             	shr    $0x10,%eax
c00017f8:	89 c2                	mov    %eax,%edx
c00017fa:	8b 45 08             	mov    0x8(%ebp),%eax
c00017fd:	66 89 50 06          	mov    %dx,0x6(%eax)
c0001801:	90                   	nop
c0001802:	c9                   	leave  
c0001803:	c3                   	ret    

c0001804 <idt_desc_init>:
c0001804:	f3 0f 1e fb          	endbr32 
c0001808:	55                   	push   %ebp
c0001809:	89 e5                	mov    %esp,%ebp
c000180b:	53                   	push   %ebx
c000180c:	83 ec 14             	sub    $0x14,%esp
c000180f:	e8 64 fe ff ff       	call   c0001678 <__x86.get_pc_thunk.bx>
c0001814:	81 c3 ec 67 00 00    	add    $0x67ec,%ebx
c000181a:	c7 45 f4 00 00 00 00 	movl   $0x0,-0xc(%ebp)
c0001821:	eb 31                	jmp    c0001854 <idt_desc_init+0x50>
c0001823:	c7 c0 32 80 00 c0    	mov    $0xc0008032,%eax
c0001829:	8b 55 f4             	mov    -0xc(%ebp),%edx
c000182c:	8b 04 90             	mov    (%eax,%edx,4),%eax
c000182f:	8b 55 f4             	mov    -0xc(%ebp),%edx
c0001832:	8d 0c d5 00 00 00 00 	lea    0x0(,%edx,8),%ecx
c0001839:	8d 93 a0 01 00 00    	lea    0x1a0(%ebx),%edx
c000183f:	01 ca                	add    %ecx,%edx
c0001841:	50                   	push   %eax
c0001842:	68 8e 00 00 00       	push   $0x8e
c0001847:	52                   	push   %edx
c0001848:	e8 66 ff ff ff       	call   c00017b3 <make_idt_desc>
c000184d:	83 c4 0c             	add    $0xc,%esp
c0001850:	83 45 f4 01          	addl   $0x1,-0xc(%ebp)
c0001854:	83 7d f4 2f          	cmpl   $0x2f,-0xc(%ebp)
c0001858:	7e c9                	jle    c0001823 <idt_desc_init+0x1f>
c000185a:	83 ec 0c             	sub    $0xc,%esp
c000185d:	8d 83 76 d0 ff ff    	lea    -0x2f8a(%ebx),%eax
c0001863:	50                   	push   %eax
c0001864:	e8 5a 0b 00 00       	call   c00023c3 <put_str>
c0001869:	83 c4 10             	add    $0x10,%esp
c000186c:	90                   	nop
c000186d:	8b 5d fc             	mov    -0x4(%ebp),%ebx
c0001870:	c9                   	leave  
c0001871:	c3                   	ret    

c0001872 <general_intr_handler>:
c0001872:	f3 0f 1e fb          	endbr32 
c0001876:	55                   	push   %ebp
c0001877:	89 e5                	mov    %esp,%ebp
c0001879:	53                   	push   %ebx
c000187a:	83 ec 24             	sub    $0x24,%esp
c000187d:	e8 f6 fd ff ff       	call   c0001678 <__x86.get_pc_thunk.bx>
c0001882:	81 c3 7e 67 00 00    	add    $0x677e,%ebx
c0001888:	8b 45 08             	mov    0x8(%ebp),%eax
c000188b:	88 45 e4             	mov    %al,-0x1c(%ebp)
c000188e:	80 7d e4 27          	cmpb   $0x27,-0x1c(%ebp)
c0001892:	0f 84 c7 00 00 00    	je     c000195f <general_intr_handler+0xed>
c0001898:	80 7d e4 2f          	cmpb   $0x2f,-0x1c(%ebp)
c000189c:	0f 84 bd 00 00 00    	je     c000195f <general_intr_handler+0xed>
c00018a2:	83 ec 0c             	sub    $0xc,%esp
c00018a5:	6a 00                	push   $0x0
c00018a7:	e8 e4 0b 00 00       	call   c0002490 <set_cursor>
c00018ac:	83 c4 10             	add    $0x10,%esp
c00018af:	c7 45 f4 00 00 00 00 	movl   $0x0,-0xc(%ebp)
c00018b6:	eb 11                	jmp    c00018c9 <general_intr_handler+0x57>
c00018b8:	83 ec 0c             	sub    $0xc,%esp
c00018bb:	6a 20                	push   $0x20
c00018bd:	e8 1f 0b 00 00       	call   c00023e1 <put_char>
c00018c2:	83 c4 10             	add    $0x10,%esp
c00018c5:	83 45 f4 01          	addl   $0x1,-0xc(%ebp)
c00018c9:	81 7d f4 3f 01 00 00 	cmpl   $0x13f,-0xc(%ebp)
c00018d0:	7e e6                	jle    c00018b8 <general_intr_handler+0x46>
c00018d2:	83 ec 0c             	sub    $0xc,%esp
c00018d5:	6a 00                	push   $0x0
c00018d7:	e8 b4 0b 00 00       	call   c0002490 <set_cursor>
c00018dc:	83 c4 10             	add    $0x10,%esp
c00018df:	83 ec 0c             	sub    $0xc,%esp
c00018e2:	8d 83 90 d0 ff ff    	lea    -0x2f70(%ebx),%eax
c00018e8:	50                   	push   %eax
c00018e9:	e8 d5 0a 00 00       	call   c00023c3 <put_str>
c00018ee:	83 c4 10             	add    $0x10,%esp
c00018f1:	83 ec 0c             	sub    $0xc,%esp
c00018f4:	6a 58                	push   $0x58
c00018f6:	e8 95 0b 00 00       	call   c0002490 <set_cursor>
c00018fb:	83 c4 10             	add    $0x10,%esp
c00018fe:	0f b6 55 e4          	movzbl -0x1c(%ebp),%edx
c0001902:	c7 c0 00 84 00 c0    	mov    $0xc0008400,%eax
c0001908:	8b 04 90             	mov    (%eax,%edx,4),%eax
c000190b:	83 ec 0c             	sub    $0xc,%esp
c000190e:	50                   	push   %eax
c000190f:	e8 af 0a 00 00       	call   c00023c3 <put_str>
c0001914:	83 c4 10             	add    $0x10,%esp
c0001917:	80 7d e4 0e          	cmpb   $0xe,-0x1c(%ebp)
c000191b:	75 2e                	jne    c000194b <general_intr_handler+0xd9>
c000191d:	c7 45 f0 00 00 00 00 	movl   $0x0,-0x10(%ebp)
c0001924:	0f 20 d0             	mov    %cr2,%eax
c0001927:	89 45 f0             	mov    %eax,-0x10(%ebp)
c000192a:	83 ec 0c             	sub    $0xc,%esp
c000192d:	8d 83 bf d0 ff ff    	lea    -0x2f41(%ebx),%eax
c0001933:	50                   	push   %eax
c0001934:	e8 8a 0a 00 00       	call   c00023c3 <put_str>
c0001939:	83 c4 10             	add    $0x10,%esp
c000193c:	8b 45 f0             	mov    -0x10(%ebp),%eax
c000193f:	83 ec 0c             	sub    $0xc,%esp
c0001942:	50                   	push   %eax
c0001943:	e8 18 0a 00 00       	call   c0002360 <put_int>
c0001948:	83 c4 10             	add    $0x10,%esp
c000194b:	83 ec 0c             	sub    $0xc,%esp
c000194e:	8d 83 d4 d0 ff ff    	lea    -0x2f2c(%ebx),%eax
c0001954:	50                   	push   %eax
c0001955:	e8 69 0a 00 00       	call   c00023c3 <put_str>
c000195a:	83 c4 10             	add    $0x10,%esp
c000195d:	eb fe                	jmp    c000195d <general_intr_handler+0xeb>
c000195f:	90                   	nop
c0001960:	8b 5d fc             	mov    -0x4(%ebp),%ebx
c0001963:	c9                   	leave  
c0001964:	c3                   	ret    

c0001965 <exception_init>:
c0001965:	f3 0f 1e fb          	endbr32 
c0001969:	55                   	push   %ebp
c000196a:	89 e5                	mov    %esp,%ebp
c000196c:	53                   	push   %ebx
c000196d:	83 ec 10             	sub    $0x10,%esp
c0001970:	e8 ff fc ff ff       	call   c0001674 <__x86.get_pc_thunk.ax>
c0001975:	05 8b 66 00 00       	add    $0x668b,%eax
c000197a:	c7 45 f8 00 00 00 00 	movl   $0x0,-0x8(%ebp)
c0001981:	eb 28                	jmp    c00019ab <exception_init+0x46>
c0001983:	c7 c2 c0 84 00 c0    	mov    $0xc00084c0,%edx
c0001989:	8b 4d f8             	mov    -0x8(%ebp),%ecx
c000198c:	8d 98 72 98 ff ff    	lea    -0x678e(%eax),%ebx
c0001992:	89 1c 8a             	mov    %ebx,(%edx,%ecx,4)
c0001995:	c7 c2 00 84 00 c0    	mov    $0xc0008400,%edx
c000199b:	8b 4d f8             	mov    -0x8(%ebp),%ecx
c000199e:	8d 98 04 d1 ff ff    	lea    -0x2efc(%eax),%ebx
c00019a4:	89 1c 8a             	mov    %ebx,(%edx,%ecx,4)
c00019a7:	83 45 f8 01          	addl   $0x1,-0x8(%ebp)
c00019ab:	83 7d f8 2f          	cmpl   $0x2f,-0x8(%ebp)
c00019af:	7e d2                	jle    c0001983 <exception_init+0x1e>
c00019b1:	c7 c2 00 84 00 c0    	mov    $0xc0008400,%edx
c00019b7:	8d 88 0c d1 ff ff    	lea    -0x2ef4(%eax),%ecx
c00019bd:	89 0a                	mov    %ecx,(%edx)
c00019bf:	c7 c2 00 84 00 c0    	mov    $0xc0008400,%edx
c00019c5:	8d 88 1d d1 ff ff    	lea    -0x2ee3(%eax),%ecx
c00019cb:	89 4a 04             	mov    %ecx,0x4(%edx)
c00019ce:	c7 c2 00 84 00 c0    	mov    $0xc0008400,%edx
c00019d4:	8d 88 31 d1 ff ff    	lea    -0x2ecf(%eax),%ecx
c00019da:	89 4a 08             	mov    %ecx,0x8(%edx)
c00019dd:	c7 c2 00 84 00 c0    	mov    $0xc0008400,%edx
c00019e3:	8d 88 3f d1 ff ff    	lea    -0x2ec1(%eax),%ecx
c00019e9:	89 4a 0c             	mov    %ecx,0xc(%edx)
c00019ec:	c7 c2 00 84 00 c0    	mov    $0xc0008400,%edx
c00019f2:	8d 88 58 d1 ff ff    	lea    -0x2ea8(%eax),%ecx
c00019f8:	89 4a 10             	mov    %ecx,0x10(%edx)
c00019fb:	c7 c2 00 84 00 c0    	mov    $0xc0008400,%edx
c0001a01:	8d 88 70 d1 ff ff    	lea    -0x2e90(%eax),%ecx
c0001a07:	89 4a 14             	mov    %ecx,0x14(%edx)
c0001a0a:	c7 c2 00 84 00 c0    	mov    $0xc0008400,%edx
c0001a10:	8d 88 93 d1 ff ff    	lea    -0x2e6d(%eax),%ecx
c0001a16:	89 4a 18             	mov    %ecx,0x18(%edx)
c0001a19:	c7 c2 00 84 00 c0    	mov    $0xc0008400,%edx
c0001a1f:	8d 88 b0 d1 ff ff    	lea    -0x2e50(%eax),%ecx
c0001a25:	89 4a 1c             	mov    %ecx,0x1c(%edx)
c0001a28:	c7 c2 00 84 00 c0    	mov    $0xc0008400,%edx
c0001a2e:	8d 88 d3 d1 ff ff    	lea    -0x2e2d(%eax),%ecx
c0001a34:	89 4a 20             	mov    %ecx,0x20(%edx)
c0001a37:	c7 c2 00 84 00 c0    	mov    $0xc0008400,%edx
c0001a3d:	8d 88 ee d1 ff ff    	lea    -0x2e12(%eax),%ecx
c0001a43:	89 4a 24             	mov    %ecx,0x24(%edx)
c0001a46:	c7 c2 00 84 00 c0    	mov    $0xc0008400,%edx
c0001a4c:	8d 88 0a d2 ff ff    	lea    -0x2df6(%eax),%ecx
c0001a52:	89 4a 28             	mov    %ecx,0x28(%edx)
c0001a55:	c7 c2 00 84 00 c0    	mov    $0xc0008400,%edx
c0001a5b:	8d 88 24 d2 ff ff    	lea    -0x2ddc(%eax),%ecx
c0001a61:	89 4a 2c             	mov    %ecx,0x2c(%edx)
c0001a64:	c7 c2 00 84 00 c0    	mov    $0xc0008400,%edx
c0001a6a:	8d 88 3c d2 ff ff    	lea    -0x2dc4(%eax),%ecx
c0001a70:	89 4a 30             	mov    %ecx,0x30(%edx)
c0001a73:	c7 c2 00 84 00 c0    	mov    $0xc0008400,%edx
c0001a79:	8d 88 58 d2 ff ff    	lea    -0x2da8(%eax),%ecx
c0001a7f:	89 4a 34             	mov    %ecx,0x34(%edx)
c0001a82:	c7 c2 00 84 00 c0    	mov    $0xc0008400,%edx
c0001a88:	8d 88 79 d2 ff ff    	lea    -0x2d87(%eax),%ecx
c0001a8e:	89 4a 38             	mov    %ecx,0x38(%edx)
c0001a91:	c7 c2 00 84 00 c0    	mov    $0xc0008400,%edx
c0001a97:	8d 88 94 d2 ff ff    	lea    -0x2d6c(%eax),%ecx
c0001a9d:	89 4a 40             	mov    %ecx,0x40(%edx)
c0001aa0:	c7 c2 00 84 00 c0    	mov    $0xc0008400,%edx
c0001aa6:	8d 88 b5 d2 ff ff    	lea    -0x2d4b(%eax),%ecx
c0001aac:	89 4a 44             	mov    %ecx,0x44(%edx)
c0001aaf:	c7 c2 00 84 00 c0    	mov    $0xc0008400,%edx
c0001ab5:	8d 88 d3 d2 ff ff    	lea    -0x2d2d(%eax),%ecx
c0001abb:	89 4a 48             	mov    %ecx,0x48(%edx)
c0001abe:	c7 c2 00 84 00 c0    	mov    $0xc0008400,%edx
c0001ac4:	8d 80 f0 d2 ff ff    	lea    -0x2d10(%eax),%eax
c0001aca:	89 42 4c             	mov    %eax,0x4c(%edx)
c0001acd:	90                   	nop
c0001ace:	83 c4 10             	add    $0x10,%esp
c0001ad1:	5b                   	pop    %ebx
c0001ad2:	5d                   	pop    %ebp
c0001ad3:	c3                   	ret    

c0001ad4 <intr_enable>:
c0001ad4:	f3 0f 1e fb          	endbr32 
c0001ad8:	55                   	push   %ebp
c0001ad9:	89 e5                	mov    %esp,%ebp
c0001adb:	83 ec 18             	sub    $0x18,%esp
c0001ade:	e8 91 fb ff ff       	call   c0001674 <__x86.get_pc_thunk.ax>
c0001ae3:	05 1d 65 00 00       	add    $0x651d,%eax
c0001ae8:	e8 81 00 00 00       	call   c0001b6e <intr_get_status>
c0001aed:	83 f8 01             	cmp    $0x1,%eax
c0001af0:	75 0c                	jne    c0001afe <intr_enable+0x2a>
c0001af2:	c7 45 f4 01 00 00 00 	movl   $0x1,-0xc(%ebp)
c0001af9:	8b 45 f4             	mov    -0xc(%ebp),%eax
c0001afc:	eb 0b                	jmp    c0001b09 <intr_enable+0x35>
c0001afe:	c7 45 f4 00 00 00 00 	movl   $0x0,-0xc(%ebp)
c0001b05:	fb                   	sti    
c0001b06:	8b 45 f4             	mov    -0xc(%ebp),%eax
c0001b09:	c9                   	leave  
c0001b0a:	c3                   	ret    

c0001b0b <intr_disable>:
c0001b0b:	f3 0f 1e fb          	endbr32 
c0001b0f:	55                   	push   %ebp
c0001b10:	89 e5                	mov    %esp,%ebp
c0001b12:	83 ec 18             	sub    $0x18,%esp
c0001b15:	e8 5a fb ff ff       	call   c0001674 <__x86.get_pc_thunk.ax>
c0001b1a:	05 e6 64 00 00       	add    $0x64e6,%eax
c0001b1f:	e8 4a 00 00 00       	call   c0001b6e <intr_get_status>
c0001b24:	83 f8 01             	cmp    $0x1,%eax
c0001b27:	75 0d                	jne    c0001b36 <intr_disable+0x2b>
c0001b29:	c7 45 f4 01 00 00 00 	movl   $0x1,-0xc(%ebp)
c0001b30:	fa                   	cli    
c0001b31:	8b 45 f4             	mov    -0xc(%ebp),%eax
c0001b34:	eb 0a                	jmp    c0001b40 <intr_disable+0x35>
c0001b36:	c7 45 f4 00 00 00 00 	movl   $0x0,-0xc(%ebp)
c0001b3d:	8b 45 f4             	mov    -0xc(%ebp),%eax
c0001b40:	c9                   	leave  
c0001b41:	c3                   	ret    

c0001b42 <intr_set_status>:
c0001b42:	f3 0f 1e fb          	endbr32 
c0001b46:	55                   	push   %ebp
c0001b47:	89 e5                	mov    %esp,%ebp
c0001b49:	83 ec 08             	sub    $0x8,%esp
c0001b4c:	e8 23 fb ff ff       	call   c0001674 <__x86.get_pc_thunk.ax>
c0001b51:	05 af 64 00 00       	add    $0x64af,%eax
c0001b56:	8b 45 08             	mov    0x8(%ebp),%eax
c0001b59:	83 e0 01             	and    $0x1,%eax
c0001b5c:	85 c0                	test   %eax,%eax
c0001b5e:	74 07                	je     c0001b67 <intr_set_status+0x25>
c0001b60:	e8 6f ff ff ff       	call   c0001ad4 <intr_enable>
c0001b65:	eb 05                	jmp    c0001b6c <intr_set_status+0x2a>
c0001b67:	e8 9f ff ff ff       	call   c0001b0b <intr_disable>
c0001b6c:	c9                   	leave  
c0001b6d:	c3                   	ret    

c0001b6e <intr_get_status>:
c0001b6e:	f3 0f 1e fb          	endbr32 
c0001b72:	55                   	push   %ebp
c0001b73:	89 e5                	mov    %esp,%ebp
c0001b75:	83 ec 10             	sub    $0x10,%esp
c0001b78:	e8 f7 fa ff ff       	call   c0001674 <__x86.get_pc_thunk.ax>
c0001b7d:	05 83 64 00 00       	add    $0x6483,%eax
c0001b82:	c7 45 fc 00 00 00 00 	movl   $0x0,-0x4(%ebp)
c0001b89:	9c                   	pushf  
c0001b8a:	58                   	pop    %eax
c0001b8b:	89 45 fc             	mov    %eax,-0x4(%ebp)
c0001b8e:	8b 45 fc             	mov    -0x4(%ebp),%eax
c0001b91:	c1 e8 09             	shr    $0x9,%eax
c0001b94:	83 e0 01             	and    $0x1,%eax
c0001b97:	c9                   	leave  
c0001b98:	c3                   	ret    

c0001b99 <register_handler>:
c0001b99:	f3 0f 1e fb          	endbr32 
c0001b9d:	55                   	push   %ebp
c0001b9e:	89 e5                	mov    %esp,%ebp
c0001ba0:	83 ec 04             	sub    $0x4,%esp
c0001ba3:	e8 cc fa ff ff       	call   c0001674 <__x86.get_pc_thunk.ax>
c0001ba8:	05 58 64 00 00       	add    $0x6458,%eax
c0001bad:	8b 55 08             	mov    0x8(%ebp),%edx
c0001bb0:	88 55 fc             	mov    %dl,-0x4(%ebp)
c0001bb3:	0f b6 55 fc          	movzbl -0x4(%ebp),%edx
c0001bb7:	c7 c0 c0 84 00 c0    	mov    $0xc00084c0,%eax
c0001bbd:	8b 4d 0c             	mov    0xc(%ebp),%ecx
c0001bc0:	89 0c 90             	mov    %ecx,(%eax,%edx,4)
c0001bc3:	90                   	nop
c0001bc4:	c9                   	leave  
c0001bc5:	c3                   	ret    

c0001bc6 <idt_init>:
c0001bc6:	f3 0f 1e fb          	endbr32 
c0001bca:	55                   	push   %ebp
c0001bcb:	89 e5                	mov    %esp,%ebp
c0001bcd:	57                   	push   %edi
c0001bce:	56                   	push   %esi
c0001bcf:	53                   	push   %ebx
c0001bd0:	83 ec 1c             	sub    $0x1c,%esp
c0001bd3:	e8 a0 fa ff ff       	call   c0001678 <__x86.get_pc_thunk.bx>
c0001bd8:	81 c3 28 64 00 00    	add    $0x6428,%ebx
c0001bde:	83 ec 0c             	sub    $0xc,%esp
c0001be1:	8d 83 12 d3 ff ff    	lea    -0x2cee(%ebx),%eax
c0001be7:	50                   	push   %eax
c0001be8:	e8 d6 07 00 00       	call   c00023c3 <put_str>
c0001bed:	83 c4 10             	add    $0x10,%esp
c0001bf0:	e8 0f fc ff ff       	call   c0001804 <idt_desc_init>
c0001bf5:	e8 6b fd ff ff       	call   c0001965 <exception_init>
c0001bfa:	e8 f9 fa ff ff       	call   c00016f8 <pic_init>
c0001bff:	8d 83 a0 01 00 00    	lea    0x1a0(%ebx),%eax
c0001c05:	ba 00 00 00 00       	mov    $0x0,%edx
c0001c0a:	0f a4 c2 10          	shld   $0x10,%eax,%edx
c0001c0e:	c1 e0 10             	shl    $0x10,%eax
c0001c11:	89 c1                	mov    %eax,%ecx
c0001c13:	81 c9 7f 01 00 00    	or     $0x17f,%ecx
c0001c19:	89 ce                	mov    %ecx,%esi
c0001c1b:	89 d0                	mov    %edx,%eax
c0001c1d:	80 cc 00             	or     $0x0,%ah
c0001c20:	89 c7                	mov    %eax,%edi
c0001c22:	89 75 e0             	mov    %esi,-0x20(%ebp)
c0001c25:	89 7d e4             	mov    %edi,-0x1c(%ebp)
c0001c28:	0f 01 5d e0          	lidtl  -0x20(%ebp)
c0001c2c:	83 ec 0c             	sub    $0xc,%esp
c0001c2f:	8d 83 22 d3 ff ff    	lea    -0x2cde(%ebx),%eax
c0001c35:	50                   	push   %eax
c0001c36:	e8 88 07 00 00       	call   c00023c3 <put_str>
c0001c3b:	83 c4 10             	add    $0x10,%esp
c0001c3e:	90                   	nop
c0001c3f:	8d 65 f4             	lea    -0xc(%ebp),%esp
c0001c42:	5b                   	pop    %ebx
c0001c43:	5e                   	pop    %esi
c0001c44:	5f                   	pop    %edi
c0001c45:	5d                   	pop    %ebp
c0001c46:	c3                   	ret    

c0001c47 <outb>:
c0001c47:	55                   	push   %ebp
c0001c48:	89 e5                	mov    %esp,%ebp
c0001c4a:	83 ec 08             	sub    $0x8,%esp
c0001c4d:	e8 22 fa ff ff       	call   c0001674 <__x86.get_pc_thunk.ax>
c0001c52:	05 ae 63 00 00       	add    $0x63ae,%eax
c0001c57:	8b 45 08             	mov    0x8(%ebp),%eax
c0001c5a:	8b 55 0c             	mov    0xc(%ebp),%edx
c0001c5d:	66 89 45 fc          	mov    %ax,-0x4(%ebp)
c0001c61:	89 d0                	mov    %edx,%eax
c0001c63:	88 45 f8             	mov    %al,-0x8(%ebp)
c0001c66:	0f b6 45 f8          	movzbl -0x8(%ebp),%eax
c0001c6a:	0f b7 55 fc          	movzwl -0x4(%ebp),%edx
c0001c6e:	ee                   	out    %al,(%dx)
c0001c6f:	90                   	nop
c0001c70:	c9                   	leave  
c0001c71:	c3                   	ret    

c0001c72 <frequency_set>:
c0001c72:	f3 0f 1e fb          	endbr32 
c0001c76:	55                   	push   %ebp
c0001c77:	89 e5                	mov    %esp,%ebp
c0001c79:	57                   	push   %edi
c0001c7a:	56                   	push   %esi
c0001c7b:	53                   	push   %ebx
c0001c7c:	83 ec 14             	sub    $0x14,%esp
c0001c7f:	e8 f0 f9 ff ff       	call   c0001674 <__x86.get_pc_thunk.ax>
c0001c84:	05 7c 63 00 00       	add    $0x637c,%eax
c0001c89:	8b 75 08             	mov    0x8(%ebp),%esi
c0001c8c:	8b 5d 0c             	mov    0xc(%ebp),%ebx
c0001c8f:	8b 4d 10             	mov    0x10(%ebp),%ecx
c0001c92:	8b 55 14             	mov    0x14(%ebp),%edx
c0001c95:	8b 7d 18             	mov    0x18(%ebp),%edi
c0001c98:	89 f0                	mov    %esi,%eax
c0001c9a:	88 45 f0             	mov    %al,-0x10(%ebp)
c0001c9d:	88 5d ec             	mov    %bl,-0x14(%ebp)
c0001ca0:	88 4d e8             	mov    %cl,-0x18(%ebp)
c0001ca3:	88 55 e4             	mov    %dl,-0x1c(%ebp)
c0001ca6:	89 f8                	mov    %edi,%eax
c0001ca8:	66 89 45 e0          	mov    %ax,-0x20(%ebp)
c0001cac:	0f b6 45 ec          	movzbl -0x14(%ebp),%eax
c0001cb0:	c1 e0 06             	shl    $0x6,%eax
c0001cb3:	89 c2                	mov    %eax,%edx
c0001cb5:	0f b6 45 e8          	movzbl -0x18(%ebp),%eax
c0001cb9:	c1 e0 04             	shl    $0x4,%eax
c0001cbc:	09 c2                	or     %eax,%edx
c0001cbe:	0f b6 45 e4          	movzbl -0x1c(%ebp),%eax
c0001cc2:	01 c0                	add    %eax,%eax
c0001cc4:	09 d0                	or     %edx,%eax
c0001cc6:	0f b6 c0             	movzbl %al,%eax
c0001cc9:	50                   	push   %eax
c0001cca:	6a 43                	push   $0x43
c0001ccc:	e8 76 ff ff ff       	call   c0001c47 <outb>
c0001cd1:	83 c4 08             	add    $0x8,%esp
c0001cd4:	0f b7 45 e0          	movzwl -0x20(%ebp),%eax
c0001cd8:	0f b6 d0             	movzbl %al,%edx
c0001cdb:	0f b6 45 f0          	movzbl -0x10(%ebp),%eax
c0001cdf:	52                   	push   %edx
c0001ce0:	50                   	push   %eax
c0001ce1:	e8 61 ff ff ff       	call   c0001c47 <outb>
c0001ce6:	83 c4 08             	add    $0x8,%esp
c0001ce9:	0f b7 45 e0          	movzwl -0x20(%ebp),%eax
c0001ced:	0f b6 c0             	movzbl %al,%eax
c0001cf0:	c1 f8 08             	sar    $0x8,%eax
c0001cf3:	0f b6 d0             	movzbl %al,%edx
c0001cf6:	0f b6 45 f0          	movzbl -0x10(%ebp),%eax
c0001cfa:	52                   	push   %edx
c0001cfb:	50                   	push   %eax
c0001cfc:	e8 46 ff ff ff       	call   c0001c47 <outb>
c0001d01:	83 c4 08             	add    $0x8,%esp
c0001d04:	90                   	nop
c0001d05:	8d 65 f4             	lea    -0xc(%ebp),%esp
c0001d08:	5b                   	pop    %ebx
c0001d09:	5e                   	pop    %esi
c0001d0a:	5f                   	pop    %edi
c0001d0b:	5d                   	pop    %ebp
c0001d0c:	c3                   	ret    

c0001d0d <intr_timer_handler>:
c0001d0d:	f3 0f 1e fb          	endbr32 
c0001d11:	55                   	push   %ebp
c0001d12:	89 e5                	mov    %esp,%ebp
c0001d14:	53                   	push   %ebx
c0001d15:	83 ec 14             	sub    $0x14,%esp
c0001d18:	e8 5b f9 ff ff       	call   c0001678 <__x86.get_pc_thunk.bx>
c0001d1d:	81 c3 e3 62 00 00    	add    $0x62e3,%ebx
c0001d23:	e8 64 18 00 00       	call   c000358c <running_thread>
c0001d28:	89 45 f4             	mov    %eax,-0xc(%ebp)
c0001d2b:	8b 45 f4             	mov    -0xc(%ebp),%eax
c0001d2e:	8b 40 40             	mov    0x40(%eax),%eax
c0001d31:	3d 16 09 87 19       	cmp    $0x19870916,%eax
c0001d36:	74 1f                	je     c0001d57 <intr_timer_handler+0x4a>
c0001d38:	8d 83 34 d3 ff ff    	lea    -0x2ccc(%ebx),%eax
c0001d3e:	50                   	push   %eax
c0001d3f:	8d 83 8c d3 ff ff    	lea    -0x2c74(%ebx),%eax
c0001d45:	50                   	push   %eax
c0001d46:	6a 25                	push   $0x25
c0001d48:	8d 83 5a d3 ff ff    	lea    -0x2ca6(%ebx),%eax
c0001d4e:	50                   	push   %eax
c0001d4f:	e8 54 17 00 00       	call   c00034a8 <panic_spin>
c0001d54:	83 c4 10             	add    $0x10,%esp
c0001d57:	8b 45 f4             	mov    -0xc(%ebp),%eax
c0001d5a:	8b 40 1c             	mov    0x1c(%eax),%eax
c0001d5d:	8d 50 01             	lea    0x1(%eax),%edx
c0001d60:	8b 45 f4             	mov    -0xc(%ebp),%eax
c0001d63:	89 50 1c             	mov    %edx,0x1c(%eax)
c0001d66:	c7 c0 80 85 00 c0    	mov    $0xc0008580,%eax
c0001d6c:	8b 00                	mov    (%eax),%eax
c0001d6e:	8d 50 01             	lea    0x1(%eax),%edx
c0001d71:	c7 c0 80 85 00 c0    	mov    $0xc0008580,%eax
c0001d77:	89 10                	mov    %edx,(%eax)
c0001d79:	8b 45 f4             	mov    -0xc(%ebp),%eax
c0001d7c:	0f b6 40 19          	movzbl 0x19(%eax),%eax
c0001d80:	84 c0                	test   %al,%al
c0001d82:	75 07                	jne    c0001d8b <intr_timer_handler+0x7e>
c0001d84:	e8 2c 1b 00 00       	call   c00038b5 <schedule>
c0001d89:	eb 10                	jmp    c0001d9b <intr_timer_handler+0x8e>
c0001d8b:	8b 45 f4             	mov    -0xc(%ebp),%eax
c0001d8e:	0f b6 40 19          	movzbl 0x19(%eax),%eax
c0001d92:	8d 50 ff             	lea    -0x1(%eax),%edx
c0001d95:	8b 45 f4             	mov    -0xc(%ebp),%eax
c0001d98:	88 50 19             	mov    %dl,0x19(%eax)
c0001d9b:	90                   	nop
c0001d9c:	8b 5d fc             	mov    -0x4(%ebp),%ebx
c0001d9f:	c9                   	leave  
c0001da0:	c3                   	ret    

c0001da1 <timer_init>:
c0001da1:	f3 0f 1e fb          	endbr32 
c0001da5:	55                   	push   %ebp
c0001da6:	89 e5                	mov    %esp,%ebp
c0001da8:	53                   	push   %ebx
c0001da9:	83 ec 04             	sub    $0x4,%esp
c0001dac:	e8 c7 f8 ff ff       	call   c0001678 <__x86.get_pc_thunk.bx>
c0001db1:	81 c3 4f 62 00 00    	add    $0x624f,%ebx
c0001db7:	83 ec 0c             	sub    $0xc,%esp
c0001dba:	8d 83 69 d3 ff ff    	lea    -0x2c97(%ebx),%eax
c0001dc0:	50                   	push   %eax
c0001dc1:	e8 fd 05 00 00       	call   c00023c3 <put_str>
c0001dc6:	83 c4 10             	add    $0x10,%esp
c0001dc9:	83 ec 0c             	sub    $0xc,%esp
c0001dcc:	68 9b 2e 00 00       	push   $0x2e9b
c0001dd1:	6a 02                	push   $0x2
c0001dd3:	6a 03                	push   $0x3
c0001dd5:	6a 00                	push   $0x0
c0001dd7:	6a 40                	push   $0x40
c0001dd9:	e8 94 fe ff ff       	call   c0001c72 <frequency_set>
c0001dde:	83 c4 20             	add    $0x20,%esp
c0001de1:	83 ec 08             	sub    $0x8,%esp
c0001de4:	8d 83 0d 9d ff ff    	lea    -0x62f3(%ebx),%eax
c0001dea:	50                   	push   %eax
c0001deb:	6a 20                	push   $0x20
c0001ded:	e8 a7 fd ff ff       	call   c0001b99 <register_handler>
c0001df2:	83 c4 10             	add    $0x10,%esp
c0001df5:	83 ec 0c             	sub    $0xc,%esp
c0001df8:	8d 83 7b d3 ff ff    	lea    -0x2c85(%ebx),%eax
c0001dfe:	50                   	push   %eax
c0001dff:	e8 bf 05 00 00       	call   c00023c3 <put_str>
c0001e04:	83 c4 10             	add    $0x10,%esp
c0001e07:	90                   	nop
c0001e08:	8b 5d fc             	mov    -0x4(%ebp),%ebx
c0001e0b:	c9                   	leave  
c0001e0c:	c3                   	ret    
c0001e0d:	66 90                	xchg   %ax,%ax
c0001e0f:	90                   	nop

c0001e10 <intr_exit>:
c0001e10:	83 c4 04             	add    $0x4,%esp
c0001e13:	61                   	popa   
c0001e14:	0f a9                	pop    %gs
c0001e16:	0f a1                	pop    %fs
c0001e18:	07                   	pop    %es
c0001e19:	1f                   	pop    %ds
c0001e1a:	83 c4 04             	add    $0x4,%esp
c0001e1d:	cf                   	iret   

c0001e1e <intr0x00entry>:
c0001e1e:	6a 00                	push   $0x0
c0001e20:	1e                   	push   %ds
c0001e21:	06                   	push   %es
c0001e22:	0f a0                	push   %fs
c0001e24:	0f a8                	push   %gs
c0001e26:	60                   	pusha  
c0001e27:	b0 20                	mov    $0x20,%al
c0001e29:	e6 a0                	out    %al,$0xa0
c0001e2b:	e6 20                	out    %al,$0x20
c0001e2d:	6a 00                	push   $0x0
c0001e2f:	ff 15 c0 84 00 c0    	call   *0xc00084c0
c0001e35:	eb d9                	jmp    c0001e10 <intr_exit>

c0001e37 <intr0x01entry>:
c0001e37:	6a 00                	push   $0x0
c0001e39:	1e                   	push   %ds
c0001e3a:	06                   	push   %es
c0001e3b:	0f a0                	push   %fs
c0001e3d:	0f a8                	push   %gs
c0001e3f:	60                   	pusha  
c0001e40:	b0 20                	mov    $0x20,%al
c0001e42:	e6 a0                	out    %al,$0xa0
c0001e44:	e6 20                	out    %al,$0x20
c0001e46:	6a 01                	push   $0x1
c0001e48:	ff 15 c4 84 00 c0    	call   *0xc00084c4
c0001e4e:	eb c0                	jmp    c0001e10 <intr_exit>

c0001e50 <intr0x02entry>:
c0001e50:	6a 00                	push   $0x0
c0001e52:	1e                   	push   %ds
c0001e53:	06                   	push   %es
c0001e54:	0f a0                	push   %fs
c0001e56:	0f a8                	push   %gs
c0001e58:	60                   	pusha  
c0001e59:	b0 20                	mov    $0x20,%al
c0001e5b:	e6 a0                	out    %al,$0xa0
c0001e5d:	e6 20                	out    %al,$0x20
c0001e5f:	6a 02                	push   $0x2
c0001e61:	ff 15 c8 84 00 c0    	call   *0xc00084c8
c0001e67:	eb a7                	jmp    c0001e10 <intr_exit>

c0001e69 <intr0x03entry>:
c0001e69:	6a 00                	push   $0x0
c0001e6b:	1e                   	push   %ds
c0001e6c:	06                   	push   %es
c0001e6d:	0f a0                	push   %fs
c0001e6f:	0f a8                	push   %gs
c0001e71:	60                   	pusha  
c0001e72:	b0 20                	mov    $0x20,%al
c0001e74:	e6 a0                	out    %al,$0xa0
c0001e76:	e6 20                	out    %al,$0x20
c0001e78:	6a 03                	push   $0x3
c0001e7a:	ff 15 cc 84 00 c0    	call   *0xc00084cc
c0001e80:	eb 8e                	jmp    c0001e10 <intr_exit>

c0001e82 <intr0x04entry>:
c0001e82:	6a 00                	push   $0x0
c0001e84:	1e                   	push   %ds
c0001e85:	06                   	push   %es
c0001e86:	0f a0                	push   %fs
c0001e88:	0f a8                	push   %gs
c0001e8a:	60                   	pusha  
c0001e8b:	b0 20                	mov    $0x20,%al
c0001e8d:	e6 a0                	out    %al,$0xa0
c0001e8f:	e6 20                	out    %al,$0x20
c0001e91:	6a 04                	push   $0x4
c0001e93:	ff 15 d0 84 00 c0    	call   *0xc00084d0
c0001e99:	e9 72 ff ff ff       	jmp    c0001e10 <intr_exit>

c0001e9e <intr0x05entry>:
c0001e9e:	6a 00                	push   $0x0
c0001ea0:	1e                   	push   %ds
c0001ea1:	06                   	push   %es
c0001ea2:	0f a0                	push   %fs
c0001ea4:	0f a8                	push   %gs
c0001ea6:	60                   	pusha  
c0001ea7:	b0 20                	mov    $0x20,%al
c0001ea9:	e6 a0                	out    %al,$0xa0
c0001eab:	e6 20                	out    %al,$0x20
c0001ead:	6a 05                	push   $0x5
c0001eaf:	ff 15 d4 84 00 c0    	call   *0xc00084d4
c0001eb5:	e9 56 ff ff ff       	jmp    c0001e10 <intr_exit>

c0001eba <intr0x06entry>:
c0001eba:	6a 00                	push   $0x0
c0001ebc:	1e                   	push   %ds
c0001ebd:	06                   	push   %es
c0001ebe:	0f a0                	push   %fs
c0001ec0:	0f a8                	push   %gs
c0001ec2:	60                   	pusha  
c0001ec3:	b0 20                	mov    $0x20,%al
c0001ec5:	e6 a0                	out    %al,$0xa0
c0001ec7:	e6 20                	out    %al,$0x20
c0001ec9:	6a 06                	push   $0x6
c0001ecb:	ff 15 d8 84 00 c0    	call   *0xc00084d8
c0001ed1:	e9 3a ff ff ff       	jmp    c0001e10 <intr_exit>

c0001ed6 <intr0x07entry>:
c0001ed6:	6a 00                	push   $0x0
c0001ed8:	1e                   	push   %ds
c0001ed9:	06                   	push   %es
c0001eda:	0f a0                	push   %fs
c0001edc:	0f a8                	push   %gs
c0001ede:	60                   	pusha  
c0001edf:	b0 20                	mov    $0x20,%al
c0001ee1:	e6 a0                	out    %al,$0xa0
c0001ee3:	e6 20                	out    %al,$0x20
c0001ee5:	6a 07                	push   $0x7
c0001ee7:	ff 15 dc 84 00 c0    	call   *0xc00084dc
c0001eed:	e9 1e ff ff ff       	jmp    c0001e10 <intr_exit>

c0001ef2 <intr0x08entry>:
c0001ef2:	6a 00                	push   $0x0
c0001ef4:	1e                   	push   %ds
c0001ef5:	06                   	push   %es
c0001ef6:	0f a0                	push   %fs
c0001ef8:	0f a8                	push   %gs
c0001efa:	60                   	pusha  
c0001efb:	b0 20                	mov    $0x20,%al
c0001efd:	e6 a0                	out    %al,$0xa0
c0001eff:	e6 20                	out    %al,$0x20
c0001f01:	6a 08                	push   $0x8
c0001f03:	ff 15 e0 84 00 c0    	call   *0xc00084e0
c0001f09:	e9 02 ff ff ff       	jmp    c0001e10 <intr_exit>

c0001f0e <intr0x09entry>:
c0001f0e:	6a 00                	push   $0x0
c0001f10:	1e                   	push   %ds
c0001f11:	06                   	push   %es
c0001f12:	0f a0                	push   %fs
c0001f14:	0f a8                	push   %gs
c0001f16:	60                   	pusha  
c0001f17:	b0 20                	mov    $0x20,%al
c0001f19:	e6 a0                	out    %al,$0xa0
c0001f1b:	e6 20                	out    %al,$0x20
c0001f1d:	6a 09                	push   $0x9
c0001f1f:	ff 15 e4 84 00 c0    	call   *0xc00084e4
c0001f25:	e9 e6 fe ff ff       	jmp    c0001e10 <intr_exit>

c0001f2a <intr0x0aentry>:
c0001f2a:	6a 00                	push   $0x0
c0001f2c:	1e                   	push   %ds
c0001f2d:	06                   	push   %es
c0001f2e:	0f a0                	push   %fs
c0001f30:	0f a8                	push   %gs
c0001f32:	60                   	pusha  
c0001f33:	b0 20                	mov    $0x20,%al
c0001f35:	e6 a0                	out    %al,$0xa0
c0001f37:	e6 20                	out    %al,$0x20
c0001f39:	6a 0a                	push   $0xa
c0001f3b:	ff 15 e8 84 00 c0    	call   *0xc00084e8
c0001f41:	e9 ca fe ff ff       	jmp    c0001e10 <intr_exit>

c0001f46 <intr0x0bentry>:
c0001f46:	6a 00                	push   $0x0
c0001f48:	1e                   	push   %ds
c0001f49:	06                   	push   %es
c0001f4a:	0f a0                	push   %fs
c0001f4c:	0f a8                	push   %gs
c0001f4e:	60                   	pusha  
c0001f4f:	b0 20                	mov    $0x20,%al
c0001f51:	e6 a0                	out    %al,$0xa0
c0001f53:	e6 20                	out    %al,$0x20
c0001f55:	6a 0b                	push   $0xb
c0001f57:	ff 15 ec 84 00 c0    	call   *0xc00084ec
c0001f5d:	e9 ae fe ff ff       	jmp    c0001e10 <intr_exit>

c0001f62 <intr0x0centry>:
c0001f62:	6a 00                	push   $0x0
c0001f64:	1e                   	push   %ds
c0001f65:	06                   	push   %es
c0001f66:	0f a0                	push   %fs
c0001f68:	0f a8                	push   %gs
c0001f6a:	60                   	pusha  
c0001f6b:	b0 20                	mov    $0x20,%al
c0001f6d:	e6 a0                	out    %al,$0xa0
c0001f6f:	e6 20                	out    %al,$0x20
c0001f71:	6a 0c                	push   $0xc
c0001f73:	ff 15 f0 84 00 c0    	call   *0xc00084f0
c0001f79:	e9 92 fe ff ff       	jmp    c0001e10 <intr_exit>

c0001f7e <intr0x0dentry>:
c0001f7e:	6a 00                	push   $0x0
c0001f80:	1e                   	push   %ds
c0001f81:	06                   	push   %es
c0001f82:	0f a0                	push   %fs
c0001f84:	0f a8                	push   %gs
c0001f86:	60                   	pusha  
c0001f87:	b0 20                	mov    $0x20,%al
c0001f89:	e6 a0                	out    %al,$0xa0
c0001f8b:	e6 20                	out    %al,$0x20
c0001f8d:	6a 0d                	push   $0xd
c0001f8f:	ff 15 f4 84 00 c0    	call   *0xc00084f4
c0001f95:	e9 76 fe ff ff       	jmp    c0001e10 <intr_exit>

c0001f9a <intr0x0eentry>:
c0001f9a:	6a 00                	push   $0x0
c0001f9c:	1e                   	push   %ds
c0001f9d:	06                   	push   %es
c0001f9e:	0f a0                	push   %fs
c0001fa0:	0f a8                	push   %gs
c0001fa2:	60                   	pusha  
c0001fa3:	b0 20                	mov    $0x20,%al
c0001fa5:	e6 a0                	out    %al,$0xa0
c0001fa7:	e6 20                	out    %al,$0x20
c0001fa9:	6a 0e                	push   $0xe
c0001fab:	ff 15 f8 84 00 c0    	call   *0xc00084f8
c0001fb1:	e9 5a fe ff ff       	jmp    c0001e10 <intr_exit>

c0001fb6 <intr0x0fentry>:
c0001fb6:	6a 00                	push   $0x0
c0001fb8:	1e                   	push   %ds
c0001fb9:	06                   	push   %es
c0001fba:	0f a0                	push   %fs
c0001fbc:	0f a8                	push   %gs
c0001fbe:	60                   	pusha  
c0001fbf:	b0 20                	mov    $0x20,%al
c0001fc1:	e6 a0                	out    %al,$0xa0
c0001fc3:	e6 20                	out    %al,$0x20
c0001fc5:	6a 0f                	push   $0xf
c0001fc7:	ff 15 fc 84 00 c0    	call   *0xc00084fc
c0001fcd:	e9 3e fe ff ff       	jmp    c0001e10 <intr_exit>

c0001fd2 <intr0x10entry>:
c0001fd2:	6a 00                	push   $0x0
c0001fd4:	1e                   	push   %ds
c0001fd5:	06                   	push   %es
c0001fd6:	0f a0                	push   %fs
c0001fd8:	0f a8                	push   %gs
c0001fda:	60                   	pusha  
c0001fdb:	b0 20                	mov    $0x20,%al
c0001fdd:	e6 a0                	out    %al,$0xa0
c0001fdf:	e6 20                	out    %al,$0x20
c0001fe1:	6a 10                	push   $0x10
c0001fe3:	ff 15 00 85 00 c0    	call   *0xc0008500
c0001fe9:	e9 22 fe ff ff       	jmp    c0001e10 <intr_exit>

c0001fee <intr0x11entry>:
c0001fee:	6a 00                	push   $0x0
c0001ff0:	1e                   	push   %ds
c0001ff1:	06                   	push   %es
c0001ff2:	0f a0                	push   %fs
c0001ff4:	0f a8                	push   %gs
c0001ff6:	60                   	pusha  
c0001ff7:	b0 20                	mov    $0x20,%al
c0001ff9:	e6 a0                	out    %al,$0xa0
c0001ffb:	e6 20                	out    %al,$0x20
c0001ffd:	6a 11                	push   $0x11
c0001fff:	ff 15 04 85 00 c0    	call   *0xc0008504
c0002005:	e9 06 fe ff ff       	jmp    c0001e10 <intr_exit>

c000200a <intr0x12entry>:
c000200a:	6a 00                	push   $0x0
c000200c:	1e                   	push   %ds
c000200d:	06                   	push   %es
c000200e:	0f a0                	push   %fs
c0002010:	0f a8                	push   %gs
c0002012:	60                   	pusha  
c0002013:	b0 20                	mov    $0x20,%al
c0002015:	e6 a0                	out    %al,$0xa0
c0002017:	e6 20                	out    %al,$0x20
c0002019:	6a 12                	push   $0x12
c000201b:	ff 15 08 85 00 c0    	call   *0xc0008508
c0002021:	e9 ea fd ff ff       	jmp    c0001e10 <intr_exit>

c0002026 <intr0x13entry>:
c0002026:	6a 00                	push   $0x0
c0002028:	1e                   	push   %ds
c0002029:	06                   	push   %es
c000202a:	0f a0                	push   %fs
c000202c:	0f a8                	push   %gs
c000202e:	60                   	pusha  
c000202f:	b0 20                	mov    $0x20,%al
c0002031:	e6 a0                	out    %al,$0xa0
c0002033:	e6 20                	out    %al,$0x20
c0002035:	6a 13                	push   $0x13
c0002037:	ff 15 0c 85 00 c0    	call   *0xc000850c
c000203d:	e9 ce fd ff ff       	jmp    c0001e10 <intr_exit>

c0002042 <intr0x14entry>:
c0002042:	6a 00                	push   $0x0
c0002044:	1e                   	push   %ds
c0002045:	06                   	push   %es
c0002046:	0f a0                	push   %fs
c0002048:	0f a8                	push   %gs
c000204a:	60                   	pusha  
c000204b:	b0 20                	mov    $0x20,%al
c000204d:	e6 a0                	out    %al,$0xa0
c000204f:	e6 20                	out    %al,$0x20
c0002051:	6a 14                	push   $0x14
c0002053:	ff 15 10 85 00 c0    	call   *0xc0008510
c0002059:	e9 b2 fd ff ff       	jmp    c0001e10 <intr_exit>

c000205e <intr0x15entry>:
c000205e:	6a 00                	push   $0x0
c0002060:	1e                   	push   %ds
c0002061:	06                   	push   %es
c0002062:	0f a0                	push   %fs
c0002064:	0f a8                	push   %gs
c0002066:	60                   	pusha  
c0002067:	b0 20                	mov    $0x20,%al
c0002069:	e6 a0                	out    %al,$0xa0
c000206b:	e6 20                	out    %al,$0x20
c000206d:	6a 15                	push   $0x15
c000206f:	ff 15 14 85 00 c0    	call   *0xc0008514
c0002075:	e9 96 fd ff ff       	jmp    c0001e10 <intr_exit>

c000207a <intr0x16entry>:
c000207a:	6a 00                	push   $0x0
c000207c:	1e                   	push   %ds
c000207d:	06                   	push   %es
c000207e:	0f a0                	push   %fs
c0002080:	0f a8                	push   %gs
c0002082:	60                   	pusha  
c0002083:	b0 20                	mov    $0x20,%al
c0002085:	e6 a0                	out    %al,$0xa0
c0002087:	e6 20                	out    %al,$0x20
c0002089:	6a 16                	push   $0x16
c000208b:	ff 15 18 85 00 c0    	call   *0xc0008518
c0002091:	e9 7a fd ff ff       	jmp    c0001e10 <intr_exit>

c0002096 <intr0x17entry>:
c0002096:	6a 00                	push   $0x0
c0002098:	1e                   	push   %ds
c0002099:	06                   	push   %es
c000209a:	0f a0                	push   %fs
c000209c:	0f a8                	push   %gs
c000209e:	60                   	pusha  
c000209f:	b0 20                	mov    $0x20,%al
c00020a1:	e6 a0                	out    %al,$0xa0
c00020a3:	e6 20                	out    %al,$0x20
c00020a5:	6a 17                	push   $0x17
c00020a7:	ff 15 1c 85 00 c0    	call   *0xc000851c
c00020ad:	e9 5e fd ff ff       	jmp    c0001e10 <intr_exit>

c00020b2 <intr0x18entry>:
c00020b2:	6a 00                	push   $0x0
c00020b4:	1e                   	push   %ds
c00020b5:	06                   	push   %es
c00020b6:	0f a0                	push   %fs
c00020b8:	0f a8                	push   %gs
c00020ba:	60                   	pusha  
c00020bb:	b0 20                	mov    $0x20,%al
c00020bd:	e6 a0                	out    %al,$0xa0
c00020bf:	e6 20                	out    %al,$0x20
c00020c1:	6a 18                	push   $0x18
c00020c3:	ff 15 20 85 00 c0    	call   *0xc0008520
c00020c9:	e9 42 fd ff ff       	jmp    c0001e10 <intr_exit>

c00020ce <intr0x19entry>:
c00020ce:	6a 00                	push   $0x0
c00020d0:	1e                   	push   %ds
c00020d1:	06                   	push   %es
c00020d2:	0f a0                	push   %fs
c00020d4:	0f a8                	push   %gs
c00020d6:	60                   	pusha  
c00020d7:	b0 20                	mov    $0x20,%al
c00020d9:	e6 a0                	out    %al,$0xa0
c00020db:	e6 20                	out    %al,$0x20
c00020dd:	6a 19                	push   $0x19
c00020df:	ff 15 24 85 00 c0    	call   *0xc0008524
c00020e5:	e9 26 fd ff ff       	jmp    c0001e10 <intr_exit>

c00020ea <intr0x1aentry>:
c00020ea:	6a 00                	push   $0x0
c00020ec:	1e                   	push   %ds
c00020ed:	06                   	push   %es
c00020ee:	0f a0                	push   %fs
c00020f0:	0f a8                	push   %gs
c00020f2:	60                   	pusha  
c00020f3:	b0 20                	mov    $0x20,%al
c00020f5:	e6 a0                	out    %al,$0xa0
c00020f7:	e6 20                	out    %al,$0x20
c00020f9:	6a 1a                	push   $0x1a
c00020fb:	ff 15 28 85 00 c0    	call   *0xc0008528
c0002101:	e9 0a fd ff ff       	jmp    c0001e10 <intr_exit>

c0002106 <intr0x1bentry>:
c0002106:	6a 00                	push   $0x0
c0002108:	1e                   	push   %ds
c0002109:	06                   	push   %es
c000210a:	0f a0                	push   %fs
c000210c:	0f a8                	push   %gs
c000210e:	60                   	pusha  
c000210f:	b0 20                	mov    $0x20,%al
c0002111:	e6 a0                	out    %al,$0xa0
c0002113:	e6 20                	out    %al,$0x20
c0002115:	6a 1b                	push   $0x1b
c0002117:	ff 15 2c 85 00 c0    	call   *0xc000852c
c000211d:	e9 ee fc ff ff       	jmp    c0001e10 <intr_exit>

c0002122 <intr0x1centry>:
c0002122:	6a 00                	push   $0x0
c0002124:	1e                   	push   %ds
c0002125:	06                   	push   %es
c0002126:	0f a0                	push   %fs
c0002128:	0f a8                	push   %gs
c000212a:	60                   	pusha  
c000212b:	b0 20                	mov    $0x20,%al
c000212d:	e6 a0                	out    %al,$0xa0
c000212f:	e6 20                	out    %al,$0x20
c0002131:	6a 1c                	push   $0x1c
c0002133:	ff 15 30 85 00 c0    	call   *0xc0008530
c0002139:	e9 d2 fc ff ff       	jmp    c0001e10 <intr_exit>

c000213e <intr0x1dentry>:
c000213e:	6a 00                	push   $0x0
c0002140:	1e                   	push   %ds
c0002141:	06                   	push   %es
c0002142:	0f a0                	push   %fs
c0002144:	0f a8                	push   %gs
c0002146:	60                   	pusha  
c0002147:	b0 20                	mov    $0x20,%al
c0002149:	e6 a0                	out    %al,$0xa0
c000214b:	e6 20                	out    %al,$0x20
c000214d:	6a 1d                	push   $0x1d
c000214f:	ff 15 34 85 00 c0    	call   *0xc0008534
c0002155:	e9 b6 fc ff ff       	jmp    c0001e10 <intr_exit>

c000215a <intr0x1eentry>:
c000215a:	90                   	nop
c000215b:	1e                   	push   %ds
c000215c:	06                   	push   %es
c000215d:	0f a0                	push   %fs
c000215f:	0f a8                	push   %gs
c0002161:	60                   	pusha  
c0002162:	b0 20                	mov    $0x20,%al
c0002164:	e6 a0                	out    %al,$0xa0
c0002166:	e6 20                	out    %al,$0x20
c0002168:	6a 1e                	push   $0x1e
c000216a:	ff 15 38 85 00 c0    	call   *0xc0008538
c0002170:	e9 9b fc ff ff       	jmp    c0001e10 <intr_exit>

c0002175 <intr0x1fentry>:
c0002175:	6a 00                	push   $0x0
c0002177:	1e                   	push   %ds
c0002178:	06                   	push   %es
c0002179:	0f a0                	push   %fs
c000217b:	0f a8                	push   %gs
c000217d:	60                   	pusha  
c000217e:	b0 20                	mov    $0x20,%al
c0002180:	e6 a0                	out    %al,$0xa0
c0002182:	e6 20                	out    %al,$0x20
c0002184:	6a 1f                	push   $0x1f
c0002186:	ff 15 3c 85 00 c0    	call   *0xc000853c
c000218c:	e9 7f fc ff ff       	jmp    c0001e10 <intr_exit>

c0002191 <intr0x20entry>:
c0002191:	6a 00                	push   $0x0
c0002193:	1e                   	push   %ds
c0002194:	06                   	push   %es
c0002195:	0f a0                	push   %fs
c0002197:	0f a8                	push   %gs
c0002199:	60                   	pusha  
c000219a:	b0 20                	mov    $0x20,%al
c000219c:	e6 a0                	out    %al,$0xa0
c000219e:	e6 20                	out    %al,$0x20
c00021a0:	6a 20                	push   $0x20
c00021a2:	ff 15 40 85 00 c0    	call   *0xc0008540
c00021a8:	e9 63 fc ff ff       	jmp    c0001e10 <intr_exit>

c00021ad <intr0x21entry>:
c00021ad:	6a 00                	push   $0x0
c00021af:	1e                   	push   %ds
c00021b0:	06                   	push   %es
c00021b1:	0f a0                	push   %fs
c00021b3:	0f a8                	push   %gs
c00021b5:	60                   	pusha  
c00021b6:	b0 20                	mov    $0x20,%al
c00021b8:	e6 a0                	out    %al,$0xa0
c00021ba:	e6 20                	out    %al,$0x20
c00021bc:	6a 21                	push   $0x21
c00021be:	ff 15 44 85 00 c0    	call   *0xc0008544
c00021c4:	e9 47 fc ff ff       	jmp    c0001e10 <intr_exit>

c00021c9 <intr0x22entry>:
c00021c9:	6a 00                	push   $0x0
c00021cb:	1e                   	push   %ds
c00021cc:	06                   	push   %es
c00021cd:	0f a0                	push   %fs
c00021cf:	0f a8                	push   %gs
c00021d1:	60                   	pusha  
c00021d2:	b0 20                	mov    $0x20,%al
c00021d4:	e6 a0                	out    %al,$0xa0
c00021d6:	e6 20                	out    %al,$0x20
c00021d8:	6a 22                	push   $0x22
c00021da:	ff 15 48 85 00 c0    	call   *0xc0008548
c00021e0:	e9 2b fc ff ff       	jmp    c0001e10 <intr_exit>

c00021e5 <intr0x23entry>:
c00021e5:	6a 00                	push   $0x0
c00021e7:	1e                   	push   %ds
c00021e8:	06                   	push   %es
c00021e9:	0f a0                	push   %fs
c00021eb:	0f a8                	push   %gs
c00021ed:	60                   	pusha  
c00021ee:	b0 20                	mov    $0x20,%al
c00021f0:	e6 a0                	out    %al,$0xa0
c00021f2:	e6 20                	out    %al,$0x20
c00021f4:	6a 23                	push   $0x23
c00021f6:	ff 15 4c 85 00 c0    	call   *0xc000854c
c00021fc:	e9 0f fc ff ff       	jmp    c0001e10 <intr_exit>

c0002201 <intr0x24entry>:
c0002201:	6a 00                	push   $0x0
c0002203:	1e                   	push   %ds
c0002204:	06                   	push   %es
c0002205:	0f a0                	push   %fs
c0002207:	0f a8                	push   %gs
c0002209:	60                   	pusha  
c000220a:	b0 20                	mov    $0x20,%al
c000220c:	e6 a0                	out    %al,$0xa0
c000220e:	e6 20                	out    %al,$0x20
c0002210:	6a 24                	push   $0x24
c0002212:	ff 15 50 85 00 c0    	call   *0xc0008550
c0002218:	e9 f3 fb ff ff       	jmp    c0001e10 <intr_exit>

c000221d <intr0x25entry>:
c000221d:	6a 00                	push   $0x0
c000221f:	1e                   	push   %ds
c0002220:	06                   	push   %es
c0002221:	0f a0                	push   %fs
c0002223:	0f a8                	push   %gs
c0002225:	60                   	pusha  
c0002226:	b0 20                	mov    $0x20,%al
c0002228:	e6 a0                	out    %al,$0xa0
c000222a:	e6 20                	out    %al,$0x20
c000222c:	6a 25                	push   $0x25
c000222e:	ff 15 54 85 00 c0    	call   *0xc0008554
c0002234:	e9 d7 fb ff ff       	jmp    c0001e10 <intr_exit>

c0002239 <intr0x26entry>:
c0002239:	6a 00                	push   $0x0
c000223b:	1e                   	push   %ds
c000223c:	06                   	push   %es
c000223d:	0f a0                	push   %fs
c000223f:	0f a8                	push   %gs
c0002241:	60                   	pusha  
c0002242:	b0 20                	mov    $0x20,%al
c0002244:	e6 a0                	out    %al,$0xa0
c0002246:	e6 20                	out    %al,$0x20
c0002248:	6a 26                	push   $0x26
c000224a:	ff 15 58 85 00 c0    	call   *0xc0008558
c0002250:	e9 bb fb ff ff       	jmp    c0001e10 <intr_exit>

c0002255 <intr0x27entry>:
c0002255:	6a 00                	push   $0x0
c0002257:	1e                   	push   %ds
c0002258:	06                   	push   %es
c0002259:	0f a0                	push   %fs
c000225b:	0f a8                	push   %gs
c000225d:	60                   	pusha  
c000225e:	b0 20                	mov    $0x20,%al
c0002260:	e6 a0                	out    %al,$0xa0
c0002262:	e6 20                	out    %al,$0x20
c0002264:	6a 27                	push   $0x27
c0002266:	ff 15 5c 85 00 c0    	call   *0xc000855c
c000226c:	e9 9f fb ff ff       	jmp    c0001e10 <intr_exit>

c0002271 <intr0x28entry>:
c0002271:	6a 00                	push   $0x0
c0002273:	1e                   	push   %ds
c0002274:	06                   	push   %es
c0002275:	0f a0                	push   %fs
c0002277:	0f a8                	push   %gs
c0002279:	60                   	pusha  
c000227a:	b0 20                	mov    $0x20,%al
c000227c:	e6 a0                	out    %al,$0xa0
c000227e:	e6 20                	out    %al,$0x20
c0002280:	6a 28                	push   $0x28
c0002282:	ff 15 60 85 00 c0    	call   *0xc0008560
c0002288:	e9 83 fb ff ff       	jmp    c0001e10 <intr_exit>

c000228d <intr0x29entry>:
c000228d:	6a 00                	push   $0x0
c000228f:	1e                   	push   %ds
c0002290:	06                   	push   %es
c0002291:	0f a0                	push   %fs
c0002293:	0f a8                	push   %gs
c0002295:	60                   	pusha  
c0002296:	b0 20                	mov    $0x20,%al
c0002298:	e6 a0                	out    %al,$0xa0
c000229a:	e6 20                	out    %al,$0x20
c000229c:	6a 29                	push   $0x29
c000229e:	ff 15 64 85 00 c0    	call   *0xc0008564
c00022a4:	e9 67 fb ff ff       	jmp    c0001e10 <intr_exit>

c00022a9 <intr0x2aentry>:
c00022a9:	6a 00                	push   $0x0
c00022ab:	1e                   	push   %ds
c00022ac:	06                   	push   %es
c00022ad:	0f a0                	push   %fs
c00022af:	0f a8                	push   %gs
c00022b1:	60                   	pusha  
c00022b2:	b0 20                	mov    $0x20,%al
c00022b4:	e6 a0                	out    %al,$0xa0
c00022b6:	e6 20                	out    %al,$0x20
c00022b8:	6a 2a                	push   $0x2a
c00022ba:	ff 15 68 85 00 c0    	call   *0xc0008568
c00022c0:	e9 4b fb ff ff       	jmp    c0001e10 <intr_exit>

c00022c5 <intr0x2bentry>:
c00022c5:	6a 00                	push   $0x0
c00022c7:	1e                   	push   %ds
c00022c8:	06                   	push   %es
c00022c9:	0f a0                	push   %fs
c00022cb:	0f a8                	push   %gs
c00022cd:	60                   	pusha  
c00022ce:	b0 20                	mov    $0x20,%al
c00022d0:	e6 a0                	out    %al,$0xa0
c00022d2:	e6 20                	out    %al,$0x20
c00022d4:	6a 2b                	push   $0x2b
c00022d6:	ff 15 6c 85 00 c0    	call   *0xc000856c
c00022dc:	e9 2f fb ff ff       	jmp    c0001e10 <intr_exit>

c00022e1 <intr0x2centry>:
c00022e1:	6a 00                	push   $0x0
c00022e3:	1e                   	push   %ds
c00022e4:	06                   	push   %es
c00022e5:	0f a0                	push   %fs
c00022e7:	0f a8                	push   %gs
c00022e9:	60                   	pusha  
c00022ea:	b0 20                	mov    $0x20,%al
c00022ec:	e6 a0                	out    %al,$0xa0
c00022ee:	e6 20                	out    %al,$0x20
c00022f0:	6a 2c                	push   $0x2c
c00022f2:	ff 15 70 85 00 c0    	call   *0xc0008570
c00022f8:	e9 13 fb ff ff       	jmp    c0001e10 <intr_exit>

c00022fd <intr0x2dentry>:
c00022fd:	6a 00                	push   $0x0
c00022ff:	1e                   	push   %ds
c0002300:	06                   	push   %es
c0002301:	0f a0                	push   %fs
c0002303:	0f a8                	push   %gs
c0002305:	60                   	pusha  
c0002306:	b0 20                	mov    $0x20,%al
c0002308:	e6 a0                	out    %al,$0xa0
c000230a:	e6 20                	out    %al,$0x20
c000230c:	6a 2d                	push   $0x2d
c000230e:	ff 15 74 85 00 c0    	call   *0xc0008574
c0002314:	e9 f7 fa ff ff       	jmp    c0001e10 <intr_exit>

c0002319 <intr0x2eentry>:
c0002319:	6a 00                	push   $0x0
c000231b:	1e                   	push   %ds
c000231c:	06                   	push   %es
c000231d:	0f a0                	push   %fs
c000231f:	0f a8                	push   %gs
c0002321:	60                   	pusha  
c0002322:	b0 20                	mov    $0x20,%al
c0002324:	e6 a0                	out    %al,$0xa0
c0002326:	e6 20                	out    %al,$0x20
c0002328:	6a 2e                	push   $0x2e
c000232a:	ff 15 78 85 00 c0    	call   *0xc0008578
c0002330:	e9 db fa ff ff       	jmp    c0001e10 <intr_exit>

c0002335 <intr0x2fentry>:
c0002335:	6a 00                	push   $0x0
c0002337:	1e                   	push   %ds
c0002338:	06                   	push   %es
c0002339:	0f a0                	push   %fs
c000233b:	0f a8                	push   %gs
c000233d:	60                   	pusha  
c000233e:	b0 20                	mov    $0x20,%al
c0002340:	e6 a0                	out    %al,$0xa0
c0002342:	e6 20                	out    %al,$0x20
c0002344:	6a 2f                	push   $0x2f
c0002346:	ff 15 7c 85 00 c0    	call   *0xc000857c
c000234c:	e9 bf fa ff ff       	jmp    c0001e10 <intr_exit>
c0002351:	66 90                	xchg   %ax,%ax
c0002353:	66 90                	xchg   %ax,%ax
c0002355:	66 90                	xchg   %ax,%ax
c0002357:	66 90                	xchg   %ax,%ax
c0002359:	66 90                	xchg   %ax,%ax
c000235b:	66 90                	xchg   %ax,%ax
c000235d:	66 90                	xchg   %ax,%ax
c000235f:	90                   	nop

c0002360 <put_int>:
c0002360:	60                   	pusha  
c0002361:	89 e5                	mov    %esp,%ebp
c0002363:	8b 45 24             	mov    0x24(%ebp),%eax
c0002366:	89 c2                	mov    %eax,%edx
c0002368:	bf 07 00 00 00       	mov    $0x7,%edi
c000236d:	b9 08 00 00 00       	mov    $0x8,%ecx
c0002372:	bb f4 80 00 c0       	mov    $0xc00080f4,%ebx

c0002377 <put_int.16based_4bits>:
c0002377:	83 e2 0f             	and    $0xf,%edx
c000237a:	83 fa 09             	cmp    $0x9,%edx
c000237d:	7f 05                	jg     c0002384 <put_int.is_A2F>
c000237f:	83 c2 30             	add    $0x30,%edx
c0002382:	eb 06                	jmp    c000238a <put_int.store>

c0002384 <put_int.is_A2F>:
c0002384:	83 ea 0a             	sub    $0xa,%edx
c0002387:	83 c2 41             	add    $0x41,%edx

c000238a <put_int.store>:
c000238a:	88 14 3b             	mov    %dl,(%ebx,%edi,1)
c000238d:	4f                   	dec    %edi
c000238e:	c1 e8 04             	shr    $0x4,%eax
c0002391:	89 c2                	mov    %eax,%edx
c0002393:	e2 e2                	loop   c0002377 <put_int.16based_4bits>

c0002395 <put_int.ready_print>:
c0002395:	47                   	inc    %edi

c0002396 <put_int.skip_prefix_0>:
c0002396:	83 ff 08             	cmp    $0x8,%edi
c0002399:	74 0f                	je     c00023aa <put_int.full0>

c000239b <put_int.go_on_skip>:
c000239b:	8a 8f f4 80 00 c0    	mov    -0x3fff7f0c(%edi),%cl
c00023a1:	47                   	inc    %edi
c00023a2:	80 f9 30             	cmp    $0x30,%cl
c00023a5:	74 ef                	je     c0002396 <put_int.skip_prefix_0>
c00023a7:	4f                   	dec    %edi
c00023a8:	eb 02                	jmp    c00023ac <put_int.put_each_num>

c00023aa <put_int.full0>:
c00023aa:	b1 30                	mov    $0x30,%cl

c00023ac <put_int.put_each_num>:
c00023ac:	51                   	push   %ecx
c00023ad:	e8 2f 00 00 00       	call   c00023e1 <put_char>
c00023b2:	83 c4 04             	add    $0x4,%esp
c00023b5:	47                   	inc    %edi
c00023b6:	8a 8f f4 80 00 c0    	mov    -0x3fff7f0c(%edi),%cl
c00023bc:	83 ff 08             	cmp    $0x8,%edi
c00023bf:	7c eb                	jl     c00023ac <put_int.put_each_num>
c00023c1:	61                   	popa   
c00023c2:	c3                   	ret    

c00023c3 <put_str>:
c00023c3:	53                   	push   %ebx
c00023c4:	51                   	push   %ecx
c00023c5:	31 c9                	xor    %ecx,%ecx
c00023c7:	8b 5c 24 0c          	mov    0xc(%esp),%ebx

c00023cb <put_str.go_on>:
c00023cb:	8a 0b                	mov    (%ebx),%cl
c00023cd:	80 f9 00             	cmp    $0x0,%cl
c00023d0:	74 0c                	je     c00023de <put_str.str_over>
c00023d2:	51                   	push   %ecx
c00023d3:	e8 09 00 00 00       	call   c00023e1 <put_char>
c00023d8:	83 c4 04             	add    $0x4,%esp
c00023db:	43                   	inc    %ebx
c00023dc:	eb ed                	jmp    c00023cb <put_str.go_on>

c00023de <put_str.str_over>:
c00023de:	59                   	pop    %ecx
c00023df:	5b                   	pop    %ebx
c00023e0:	c3                   	ret    

c00023e1 <put_char>:
c00023e1:	60                   	pusha  
c00023e2:	66 b8 18 00          	mov    $0x18,%ax
c00023e6:	8e e8                	mov    %eax,%gs
c00023e8:	66 ba d4 03          	mov    $0x3d4,%dx
c00023ec:	b0 0e                	mov    $0xe,%al
c00023ee:	ee                   	out    %al,(%dx)
c00023ef:	66 ba d5 03          	mov    $0x3d5,%dx
c00023f3:	ec                   	in     (%dx),%al
c00023f4:	88 c4                	mov    %al,%ah
c00023f6:	66 ba d4 03          	mov    $0x3d4,%dx
c00023fa:	b0 0f                	mov    $0xf,%al
c00023fc:	ee                   	out    %al,(%dx)
c00023fd:	66 ba d5 03          	mov    $0x3d5,%dx
c0002401:	ec                   	in     (%dx),%al
c0002402:	66 89 c3             	mov    %ax,%bx
c0002405:	8b 4c 24 24          	mov    0x24(%esp),%ecx
c0002409:	80 f9 0d             	cmp    $0xd,%cl
c000240c:	74 3c                	je     c000244a <put_char.is_carriage_return>
c000240e:	80 f9 0a             	cmp    $0xa,%cl
c0002411:	74 37                	je     c000244a <put_char.is_carriage_return>
c0002413:	80 f9 08             	cmp    $0x8,%cl
c0002416:	74 02                	je     c000241a <put_char.is_backspace>
c0002418:	eb 16                	jmp    c0002430 <put_char.put_other>

c000241a <put_char.is_backspace>:
c000241a:	66 4b                	dec    %bx
c000241c:	66 d1 e3             	shl    %bx
c000241f:	65 67 c6 07 20       	movb   $0x20,%gs:(%bx)
c0002424:	66 43                	inc    %bx
c0002426:	65 67 c6 07 07       	movb   $0x7,%gs:(%bx)
c000242b:	66 d1 eb             	shr    %bx
c000242e:	eb 60                	jmp    c0002490 <set_cursor>

c0002430 <put_char.put_other>:
c0002430:	66 d1 e3             	shl    %bx
c0002433:	65 67 88 0f          	mov    %cl,%gs:(%bx)
c0002437:	66 43                	inc    %bx
c0002439:	65 67 c6 07 07       	movb   $0x7,%gs:(%bx)
c000243e:	66 d1 eb             	shr    %bx
c0002441:	66 43                	inc    %bx
c0002443:	66 81 fb d0 07       	cmp    $0x7d0,%bx
c0002448:	7c 46                	jl     c0002490 <set_cursor>

c000244a <put_char.is_carriage_return>:
c000244a:	66 31 d2             	xor    %dx,%dx
c000244d:	66 89 d8             	mov    %bx,%ax
c0002450:	66 be 50 00          	mov    $0x50,%si
c0002454:	66 f7 f6             	div    %si
c0002457:	66 29 d3             	sub    %dx,%bx

c000245a <put_char.is_carriage_return_end>:
c000245a:	66 83 c3 50          	add    $0x50,%bx
c000245e:	66 81 fb d0 07       	cmp    $0x7d0,%bx

c0002463 <put_char.is_line_feed_end>:
c0002463:	7c 2b                	jl     c0002490 <set_cursor>

c0002465 <put_char.roll_screeen>:
c0002465:	fc                   	cld    
c0002466:	b9 c0 03 00 00       	mov    $0x3c0,%ecx
c000246b:	be a0 80 0b c0       	mov    $0xc00b80a0,%esi
c0002470:	bf 00 80 0b c0       	mov    $0xc00b8000,%edi
c0002475:	f3 a5                	rep movsl %ds:(%esi),%es:(%edi)
c0002477:	bb 00 0f 00 00       	mov    $0xf00,%ebx
c000247c:	b9 50 00 00 00       	mov    $0x50,%ecx

c0002481 <put_char.cls>:
c0002481:	65 66 c7 03 20 07    	movw   $0x720,%gs:(%ebx)
c0002487:	83 c3 02             	add    $0x2,%ebx
c000248a:	e2 f5                	loop   c0002481 <put_char.cls>
c000248c:	66 bb 80 07          	mov    $0x780,%bx

c0002490 <set_cursor>:
c0002490:	66 ba d4 03          	mov    $0x3d4,%dx
c0002494:	b0 0e                	mov    $0xe,%al
c0002496:	ee                   	out    %al,(%dx)
c0002497:	66 ba d5 03          	mov    $0x3d5,%dx
c000249b:	88 f8                	mov    %bh,%al
c000249d:	ee                   	out    %al,(%dx)
c000249e:	66 ba d4 03          	mov    $0x3d4,%dx
c00024a2:	b0 0f                	mov    $0xf,%al
c00024a4:	ee                   	out    %al,(%dx)
c00024a5:	66 ba d5 03          	mov    $0x3d5,%dx
c00024a9:	88 d8                	mov    %bl,%al
c00024ab:	ee                   	out    %al,(%dx)

c00024ac <set_cursor.put_char_done>:
c00024ac:	61                   	popa   
c00024ad:	c3                   	ret    

c00024ae <bitmap_init>:
c00024ae:	f3 0f 1e fb          	endbr32 
c00024b2:	55                   	push   %ebp
c00024b3:	89 e5                	mov    %esp,%ebp
c00024b5:	53                   	push   %ebx
c00024b6:	83 ec 04             	sub    $0x4,%esp
c00024b9:	e8 b6 f1 ff ff       	call   c0001674 <__x86.get_pc_thunk.ax>
c00024be:	05 42 5b 00 00       	add    $0x5b42,%eax
c00024c3:	8b 55 08             	mov    0x8(%ebp),%edx
c00024c6:	8b 0a                	mov    (%edx),%ecx
c00024c8:	8b 55 08             	mov    0x8(%ebp),%edx
c00024cb:	8b 52 04             	mov    0x4(%edx),%edx
c00024ce:	83 ec 04             	sub    $0x4,%esp
c00024d1:	51                   	push   %ecx
c00024d2:	6a 00                	push   $0x0
c00024d4:	52                   	push   %edx
c00024d5:	89 c3                	mov    %eax,%ebx
c00024d7:	e8 25 0b 00 00       	call   c0003001 <memset>
c00024dc:	83 c4 10             	add    $0x10,%esp
c00024df:	90                   	nop
c00024e0:	8b 5d fc             	mov    -0x4(%ebp),%ebx
c00024e3:	c9                   	leave  
c00024e4:	c3                   	ret    

c00024e5 <bitmap_scan_test>:
c00024e5:	f3 0f 1e fb          	endbr32 
c00024e9:	55                   	push   %ebp
c00024ea:	89 e5                	mov    %esp,%ebp
c00024ec:	53                   	push   %ebx
c00024ed:	83 ec 10             	sub    $0x10,%esp
c00024f0:	e8 7f f1 ff ff       	call   c0001674 <__x86.get_pc_thunk.ax>
c00024f5:	05 0b 5b 00 00       	add    $0x5b0b,%eax
c00024fa:	8b 45 0c             	mov    0xc(%ebp),%eax
c00024fd:	c1 e8 03             	shr    $0x3,%eax
c0002500:	89 45 f8             	mov    %eax,-0x8(%ebp)
c0002503:	8b 45 f8             	mov    -0x8(%ebp),%eax
c0002506:	83 e0 07             	and    $0x7,%eax
c0002509:	89 45 f4             	mov    %eax,-0xc(%ebp)
c000250c:	8b 45 08             	mov    0x8(%ebp),%eax
c000250f:	8b 50 04             	mov    0x4(%eax),%edx
c0002512:	8b 45 f8             	mov    -0x8(%ebp),%eax
c0002515:	01 d0                	add    %edx,%eax
c0002517:	0f b6 00             	movzbl (%eax),%eax
c000251a:	0f b6 d0             	movzbl %al,%edx
c000251d:	8b 45 f4             	mov    -0xc(%ebp),%eax
c0002520:	bb 01 00 00 00       	mov    $0x1,%ebx
c0002525:	89 c1                	mov    %eax,%ecx
c0002527:	d3 e3                	shl    %cl,%ebx
c0002529:	89 d8                	mov    %ebx,%eax
c000252b:	21 d0                	and    %edx,%eax
c000252d:	83 c4 10             	add    $0x10,%esp
c0002530:	5b                   	pop    %ebx
c0002531:	5d                   	pop    %ebp
c0002532:	c3                   	ret    

c0002533 <bitmap_scan>:
c0002533:	f3 0f 1e fb          	endbr32 
c0002537:	55                   	push   %ebp
c0002538:	89 e5                	mov    %esp,%ebp
c000253a:	83 ec 20             	sub    $0x20,%esp
c000253d:	e8 32 f1 ff ff       	call   c0001674 <__x86.get_pc_thunk.ax>
c0002542:	05 be 5a 00 00       	add    $0x5abe,%eax
c0002547:	c7 45 fc 00 00 00 00 	movl   $0x0,-0x4(%ebp)
c000254e:	eb 04                	jmp    c0002554 <bitmap_scan+0x21>
c0002550:	83 45 fc 01          	addl   $0x1,-0x4(%ebp)
c0002554:	8b 45 08             	mov    0x8(%ebp),%eax
c0002557:	8b 50 04             	mov    0x4(%eax),%edx
c000255a:	8b 45 fc             	mov    -0x4(%ebp),%eax
c000255d:	01 d0                	add    %edx,%eax
c000255f:	0f b6 00             	movzbl (%eax),%eax
c0002562:	3c ff                	cmp    $0xff,%al
c0002564:	75 0a                	jne    c0002570 <bitmap_scan+0x3d>
c0002566:	8b 45 08             	mov    0x8(%ebp),%eax
c0002569:	8b 00                	mov    (%eax),%eax
c000256b:	39 45 fc             	cmp    %eax,-0x4(%ebp)
c000256e:	72 e0                	jb     c0002550 <bitmap_scan+0x1d>
c0002570:	8b 45 08             	mov    0x8(%ebp),%eax
c0002573:	8b 00                	mov    (%eax),%eax
c0002575:	39 45 fc             	cmp    %eax,-0x4(%ebp)
c0002578:	75 0a                	jne    c0002584 <bitmap_scan+0x51>
c000257a:	b8 ff ff ff ff       	mov    $0xffffffff,%eax
c000257f:	e9 c3 00 00 00       	jmp    c0002647 <bitmap_scan+0x114>
c0002584:	c7 45 f8 00 00 00 00 	movl   $0x0,-0x8(%ebp)
c000258b:	eb 04                	jmp    c0002591 <bitmap_scan+0x5e>
c000258d:	83 45 f8 01          	addl   $0x1,-0x8(%ebp)
c0002591:	8b 45 08             	mov    0x8(%ebp),%eax
c0002594:	8b 50 04             	mov    0x4(%eax),%edx
c0002597:	8b 45 fc             	mov    -0x4(%ebp),%eax
c000259a:	01 d0                	add    %edx,%eax
c000259c:	0f b6 00             	movzbl (%eax),%eax
c000259f:	0f b6 d0             	movzbl %al,%edx
c00025a2:	8b 45 f8             	mov    -0x8(%ebp),%eax
c00025a5:	89 c1                	mov    %eax,%ecx
c00025a7:	d3 fa                	sar    %cl,%edx
c00025a9:	89 d0                	mov    %edx,%eax
c00025ab:	83 e0 01             	and    $0x1,%eax
c00025ae:	85 c0                	test   %eax,%eax
c00025b0:	75 db                	jne    c000258d <bitmap_scan+0x5a>
c00025b2:	8b 45 fc             	mov    -0x4(%ebp),%eax
c00025b5:	8d 14 c5 00 00 00 00 	lea    0x0(,%eax,8),%edx
c00025bc:	8b 45 f8             	mov    -0x8(%ebp),%eax
c00025bf:	01 d0                	add    %edx,%eax
c00025c1:	89 45 f4             	mov    %eax,-0xc(%ebp)
c00025c4:	83 7d 0c 01          	cmpl   $0x1,0xc(%ebp)
c00025c8:	75 05                	jne    c00025cf <bitmap_scan+0x9c>
c00025ca:	8b 45 f4             	mov    -0xc(%ebp),%eax
c00025cd:	eb 78                	jmp    c0002647 <bitmap_scan+0x114>
c00025cf:	8b 45 08             	mov    0x8(%ebp),%eax
c00025d2:	8b 00                	mov    (%eax),%eax
c00025d4:	8d 14 c5 00 00 00 00 	lea    0x0(,%eax,8),%edx
c00025db:	8b 45 f4             	mov    -0xc(%ebp),%eax
c00025de:	29 c2                	sub    %eax,%edx
c00025e0:	89 d0                	mov    %edx,%eax
c00025e2:	89 45 f0             	mov    %eax,-0x10(%ebp)
c00025e5:	c7 45 ec 01 00 00 00 	movl   $0x1,-0x14(%ebp)
c00025ec:	8b 45 f4             	mov    -0xc(%ebp),%eax
c00025ef:	83 c0 01             	add    $0x1,%eax
c00025f2:	89 45 e8             	mov    %eax,-0x18(%ebp)
c00025f5:	c7 45 f4 ff ff ff ff 	movl   $0xffffffff,-0xc(%ebp)
c00025fc:	eb 39                	jmp    c0002637 <bitmap_scan+0x104>
c00025fe:	ff 75 e8             	pushl  -0x18(%ebp)
c0002601:	ff 75 08             	pushl  0x8(%ebp)
c0002604:	e8 dc fe ff ff       	call   c00024e5 <bitmap_scan_test>
c0002609:	83 c4 08             	add    $0x8,%esp
c000260c:	85 c0                	test   %eax,%eax
c000260e:	75 06                	jne    c0002616 <bitmap_scan+0xe3>
c0002610:	83 45 ec 01          	addl   $0x1,-0x14(%ebp)
c0002614:	eb 07                	jmp    c000261d <bitmap_scan+0xea>
c0002616:	c7 45 ec 00 00 00 00 	movl   $0x0,-0x14(%ebp)
c000261d:	8b 45 ec             	mov    -0x14(%ebp),%eax
c0002620:	3b 45 0c             	cmp    0xc(%ebp),%eax
c0002623:	75 0e                	jne    c0002633 <bitmap_scan+0x100>
c0002625:	8b 45 e8             	mov    -0x18(%ebp),%eax
c0002628:	2b 45 0c             	sub    0xc(%ebp),%eax
c000262b:	83 c0 01             	add    $0x1,%eax
c000262e:	89 45 f4             	mov    %eax,-0xc(%ebp)
c0002631:	eb 11                	jmp    c0002644 <bitmap_scan+0x111>
c0002633:	83 45 e8 01          	addl   $0x1,-0x18(%ebp)
c0002637:	8b 45 f0             	mov    -0x10(%ebp),%eax
c000263a:	8d 50 ff             	lea    -0x1(%eax),%edx
c000263d:	89 55 f0             	mov    %edx,-0x10(%ebp)
c0002640:	85 c0                	test   %eax,%eax
c0002642:	75 ba                	jne    c00025fe <bitmap_scan+0xcb>
c0002644:	8b 45 f4             	mov    -0xc(%ebp),%eax
c0002647:	c9                   	leave  
c0002648:	c3                   	ret    

c0002649 <bitmap_set>:
c0002649:	f3 0f 1e fb          	endbr32 
c000264d:	55                   	push   %ebp
c000264e:	89 e5                	mov    %esp,%ebp
c0002650:	53                   	push   %ebx
c0002651:	83 ec 24             	sub    $0x24,%esp
c0002654:	e8 1b f0 ff ff       	call   c0001674 <__x86.get_pc_thunk.ax>
c0002659:	05 a7 59 00 00       	add    $0x59a7,%eax
c000265e:	8b 55 10             	mov    0x10(%ebp),%edx
c0002661:	88 55 e4             	mov    %dl,-0x1c(%ebp)
c0002664:	80 7d e4 00          	cmpb   $0x0,-0x1c(%ebp)
c0002668:	74 27                	je     c0002691 <bitmap_set+0x48>
c000266a:	80 7d e4 01          	cmpb   $0x1,-0x1c(%ebp)
c000266e:	74 21                	je     c0002691 <bitmap_set+0x48>
c0002670:	8d 90 a0 d3 ff ff    	lea    -0x2c60(%eax),%edx
c0002676:	52                   	push   %edx
c0002677:	8d 90 c8 d3 ff ff    	lea    -0x2c38(%eax),%edx
c000267d:	52                   	push   %edx
c000267e:	6a 4b                	push   $0x4b
c0002680:	8d 90 b9 d3 ff ff    	lea    -0x2c47(%eax),%edx
c0002686:	52                   	push   %edx
c0002687:	89 c3                	mov    %eax,%ebx
c0002689:	e8 1a 0e 00 00       	call   c00034a8 <panic_spin>
c000268e:	83 c4 10             	add    $0x10,%esp
c0002691:	8b 45 0c             	mov    0xc(%ebp),%eax
c0002694:	c1 e8 03             	shr    $0x3,%eax
c0002697:	89 45 f4             	mov    %eax,-0xc(%ebp)
c000269a:	8b 45 0c             	mov    0xc(%ebp),%eax
c000269d:	83 e0 07             	and    $0x7,%eax
c00026a0:	89 45 f0             	mov    %eax,-0x10(%ebp)
c00026a3:	80 7d e4 00          	cmpb   $0x0,-0x1c(%ebp)
c00026a7:	74 33                	je     c00026dc <bitmap_set+0x93>
c00026a9:	8b 45 08             	mov    0x8(%ebp),%eax
c00026ac:	8b 50 04             	mov    0x4(%eax),%edx
c00026af:	8b 45 f4             	mov    -0xc(%ebp),%eax
c00026b2:	01 d0                	add    %edx,%eax
c00026b4:	0f b6 00             	movzbl (%eax),%eax
c00026b7:	89 c3                	mov    %eax,%ebx
c00026b9:	8b 45 f0             	mov    -0x10(%ebp),%eax
c00026bc:	ba 01 00 00 00       	mov    $0x1,%edx
c00026c1:	89 c1                	mov    %eax,%ecx
c00026c3:	d3 e2                	shl    %cl,%edx
c00026c5:	89 d0                	mov    %edx,%eax
c00026c7:	09 c3                	or     %eax,%ebx
c00026c9:	89 d9                	mov    %ebx,%ecx
c00026cb:	8b 45 08             	mov    0x8(%ebp),%eax
c00026ce:	8b 50 04             	mov    0x4(%eax),%edx
c00026d1:	8b 45 f4             	mov    -0xc(%ebp),%eax
c00026d4:	01 d0                	add    %edx,%eax
c00026d6:	89 ca                	mov    %ecx,%edx
c00026d8:	88 10                	mov    %dl,(%eax)
c00026da:	eb 33                	jmp    c000270f <bitmap_set+0xc6>
c00026dc:	8b 45 08             	mov    0x8(%ebp),%eax
c00026df:	8b 50 04             	mov    0x4(%eax),%edx
c00026e2:	8b 45 f4             	mov    -0xc(%ebp),%eax
c00026e5:	01 d0                	add    %edx,%eax
c00026e7:	0f b6 00             	movzbl (%eax),%eax
c00026ea:	89 c2                	mov    %eax,%edx
c00026ec:	8b 45 f0             	mov    -0x10(%ebp),%eax
c00026ef:	bb 01 00 00 00       	mov    $0x1,%ebx
c00026f4:	89 c1                	mov    %eax,%ecx
c00026f6:	d3 e3                	shl    %cl,%ebx
c00026f8:	89 d8                	mov    %ebx,%eax
c00026fa:	f7 d0                	not    %eax
c00026fc:	89 d1                	mov    %edx,%ecx
c00026fe:	21 c1                	and    %eax,%ecx
c0002700:	8b 45 08             	mov    0x8(%ebp),%eax
c0002703:	8b 50 04             	mov    0x4(%eax),%edx
c0002706:	8b 45 f4             	mov    -0xc(%ebp),%eax
c0002709:	01 d0                	add    %edx,%eax
c000270b:	89 ca                	mov    %ecx,%edx
c000270d:	88 10                	mov    %dl,(%eax)
c000270f:	90                   	nop
c0002710:	8b 5d fc             	mov    -0x4(%ebp),%ebx
c0002713:	c9                   	leave  
c0002714:	c3                   	ret    

c0002715 <mem_pool_init>:
c0002715:	f3 0f 1e fb          	endbr32 
c0002719:	55                   	push   %ebp
c000271a:	89 e5                	mov    %esp,%ebp
c000271c:	53                   	push   %ebx
c000271d:	83 ec 34             	sub    $0x34,%esp
c0002720:	e8 53 ef ff ff       	call   c0001678 <__x86.get_pc_thunk.bx>
c0002725:	81 c3 db 58 00 00    	add    $0x58db,%ebx
c000272b:	83 ec 0c             	sub    $0xc,%esp
c000272e:	8d 83 d4 d3 ff ff    	lea    -0x2c2c(%ebx),%eax
c0002734:	50                   	push   %eax
c0002735:	e8 89 fc ff ff       	call   c00023c3 <put_str>
c000273a:	83 c4 10             	add    $0x10,%esp
c000273d:	c7 45 f4 00 00 10 00 	movl   $0x100000,-0xc(%ebp)
c0002744:	8b 45 f4             	mov    -0xc(%ebp),%eax
c0002747:	05 00 00 10 00       	add    $0x100000,%eax
c000274c:	89 45 f0             	mov    %eax,-0x10(%ebp)
c000274f:	8b 45 08             	mov    0x8(%ebp),%eax
c0002752:	2b 45 f0             	sub    -0x10(%ebp),%eax
c0002755:	89 45 ec             	mov    %eax,-0x14(%ebp)
c0002758:	8b 45 ec             	mov    -0x14(%ebp),%eax
c000275b:	c1 e8 0c             	shr    $0xc,%eax
c000275e:	66 89 45 ea          	mov    %ax,-0x16(%ebp)
c0002762:	0f b7 45 ea          	movzwl -0x16(%ebp),%eax
c0002766:	66 d1 e8             	shr    %ax
c0002769:	66 89 45 e8          	mov    %ax,-0x18(%ebp)
c000276d:	0f b7 45 ea          	movzwl -0x16(%ebp),%eax
c0002771:	66 2b 45 e8          	sub    -0x18(%ebp),%ax
c0002775:	66 89 45 e6          	mov    %ax,-0x1a(%ebp)
c0002779:	0f b7 45 e8          	movzwl -0x18(%ebp),%eax
c000277d:	66 c1 e8 03          	shr    $0x3,%ax
c0002781:	0f b7 c0             	movzwl %ax,%eax
c0002784:	89 45 e0             	mov    %eax,-0x20(%ebp)
c0002787:	0f b7 45 e6          	movzwl -0x1a(%ebp),%eax
c000278b:	66 c1 e8 03          	shr    $0x3,%ax
c000278f:	0f b7 c0             	movzwl %ax,%eax
c0002792:	89 45 dc             	mov    %eax,-0x24(%ebp)
c0002795:	8b 45 f0             	mov    -0x10(%ebp),%eax
c0002798:	89 45 d8             	mov    %eax,-0x28(%ebp)
c000279b:	0f b7 45 e8          	movzwl -0x18(%ebp),%eax
c000279f:	c1 e0 0c             	shl    $0xc,%eax
c00027a2:	89 c2                	mov    %eax,%edx
c00027a4:	8b 45 d8             	mov    -0x28(%ebp),%eax
c00027a7:	01 d0                	add    %edx,%eax
c00027a9:	89 45 d4             	mov    %eax,-0x2c(%ebp)
c00027ac:	c7 c0 e0 85 00 c0    	mov    $0xc00085e0,%eax
c00027b2:	8b 55 d8             	mov    -0x28(%ebp),%edx
c00027b5:	89 50 08             	mov    %edx,0x8(%eax)
c00027b8:	c7 c0 a0 85 00 c0    	mov    $0xc00085a0,%eax
c00027be:	8b 55 d4             	mov    -0x2c(%ebp),%edx
c00027c1:	89 50 08             	mov    %edx,0x8(%eax)
c00027c4:	0f b7 45 e8          	movzwl -0x18(%ebp),%eax
c00027c8:	c1 e0 0c             	shl    $0xc,%eax
c00027cb:	89 c2                	mov    %eax,%edx
c00027cd:	c7 c0 e0 85 00 c0    	mov    $0xc00085e0,%eax
c00027d3:	89 50 0c             	mov    %edx,0xc(%eax)
c00027d6:	0f b7 45 e6          	movzwl -0x1a(%ebp),%eax
c00027da:	c1 e0 0c             	shl    $0xc,%eax
c00027dd:	89 c2                	mov    %eax,%edx
c00027df:	c7 c0 a0 85 00 c0    	mov    $0xc00085a0,%eax
c00027e5:	89 50 0c             	mov    %edx,0xc(%eax)
c00027e8:	c7 c0 e0 85 00 c0    	mov    $0xc00085e0,%eax
c00027ee:	8b 55 e0             	mov    -0x20(%ebp),%edx
c00027f1:	89 10                	mov    %edx,(%eax)
c00027f3:	c7 c0 a0 85 00 c0    	mov    $0xc00085a0,%eax
c00027f9:	8b 55 dc             	mov    -0x24(%ebp),%edx
c00027fc:	89 10                	mov    %edx,(%eax)
c00027fe:	c7 c0 e0 85 00 c0    	mov    $0xc00085e0,%eax
c0002804:	c7 40 04 00 a0 09 c0 	movl   $0xc009a000,0x4(%eax)
c000280b:	8b 45 e0             	mov    -0x20(%ebp),%eax
c000280e:	2d 00 60 f6 3f       	sub    $0x3ff66000,%eax
c0002813:	89 c2                	mov    %eax,%edx
c0002815:	c7 c0 a0 85 00 c0    	mov    $0xc00085a0,%eax
c000281b:	89 50 04             	mov    %edx,0x4(%eax)
c000281e:	83 ec 04             	sub    $0x4,%esp
c0002821:	c7 c0 e0 85 00 c0    	mov    $0xc00085e0,%eax
c0002827:	ff 70 28             	pushl  0x28(%eax)
c000282a:	ff 70 24             	pushl  0x24(%eax)
c000282d:	ff 70 20             	pushl  0x20(%eax)
c0002830:	ff 70 1c             	pushl  0x1c(%eax)
c0002833:	ff 70 18             	pushl  0x18(%eax)
c0002836:	ff 70 14             	pushl  0x14(%eax)
c0002839:	ff 70 10             	pushl  0x10(%eax)
c000283c:	ff 70 0c             	pushl  0xc(%eax)
c000283f:	ff 70 08             	pushl  0x8(%eax)
c0002842:	ff 70 04             	pushl  0x4(%eax)
c0002845:	ff 30                	pushl  (%eax)
c0002847:	e8 b2 00 00 00       	call   c00028fe <printKernelPoolInfo>
c000284c:	83 c4 30             	add    $0x30,%esp
c000284f:	83 ec 04             	sub    $0x4,%esp
c0002852:	c7 c0 a0 85 00 c0    	mov    $0xc00085a0,%eax
c0002858:	ff 70 28             	pushl  0x28(%eax)
c000285b:	ff 70 24             	pushl  0x24(%eax)
c000285e:	ff 70 20             	pushl  0x20(%eax)
c0002861:	ff 70 1c             	pushl  0x1c(%eax)
c0002864:	ff 70 18             	pushl  0x18(%eax)
c0002867:	ff 70 14             	pushl  0x14(%eax)
c000286a:	ff 70 10             	pushl  0x10(%eax)
c000286d:	ff 70 0c             	pushl  0xc(%eax)
c0002870:	ff 70 08             	pushl  0x8(%eax)
c0002873:	ff 70 04             	pushl  0x4(%eax)
c0002876:	ff 30                	pushl  (%eax)
c0002878:	e8 0d 01 00 00       	call   c000298a <printUserPoolInfo>
c000287d:	83 c4 30             	add    $0x30,%esp
c0002880:	83 ec 0c             	sub    $0xc,%esp
c0002883:	c7 c0 e0 85 00 c0    	mov    $0xc00085e0,%eax
c0002889:	50                   	push   %eax
c000288a:	e8 1f fc ff ff       	call   c00024ae <bitmap_init>
c000288f:	83 c4 10             	add    $0x10,%esp
c0002892:	83 ec 0c             	sub    $0xc,%esp
c0002895:	c7 c0 a0 85 00 c0    	mov    $0xc00085a0,%eax
c000289b:	50                   	push   %eax
c000289c:	e8 0d fc ff ff       	call   c00024ae <bitmap_init>
c00028a1:	83 c4 10             	add    $0x10,%esp
c00028a4:	c7 c0 cc 85 00 c0    	mov    $0xc00085cc,%eax
c00028aa:	8b 55 e0             	mov    -0x20(%ebp),%edx
c00028ad:	89 10                	mov    %edx,(%eax)
c00028af:	8b 55 e0             	mov    -0x20(%ebp),%edx
c00028b2:	8b 45 dc             	mov    -0x24(%ebp),%eax
c00028b5:	01 d0                	add    %edx,%eax
c00028b7:	2d 00 60 f6 3f       	sub    $0x3ff66000,%eax
c00028bc:	89 c2                	mov    %eax,%edx
c00028be:	c7 c0 cc 85 00 c0    	mov    $0xc00085cc,%eax
c00028c4:	89 50 04             	mov    %edx,0x4(%eax)
c00028c7:	c7 c0 cc 85 00 c0    	mov    $0xc00085cc,%eax
c00028cd:	c7 40 08 00 00 10 c0 	movl   $0xc0100000,0x8(%eax)
c00028d4:	83 ec 0c             	sub    $0xc,%esp
c00028d7:	c7 c0 cc 85 00 c0    	mov    $0xc00085cc,%eax
c00028dd:	50                   	push   %eax
c00028de:	e8 cb fb ff ff       	call   c00024ae <bitmap_init>
c00028e3:	83 c4 10             	add    $0x10,%esp
c00028e6:	83 ec 0c             	sub    $0xc,%esp
c00028e9:	8d 83 ef d3 ff ff    	lea    -0x2c11(%ebx),%eax
c00028ef:	50                   	push   %eax
c00028f0:	e8 ce fa ff ff       	call   c00023c3 <put_str>
c00028f5:	83 c4 10             	add    $0x10,%esp
c00028f8:	90                   	nop
c00028f9:	8b 5d fc             	mov    -0x4(%ebp),%ebx
c00028fc:	c9                   	leave  
c00028fd:	c3                   	ret    

c00028fe <printKernelPoolInfo>:
c00028fe:	f3 0f 1e fb          	endbr32 
c0002902:	55                   	push   %ebp
c0002903:	89 e5                	mov    %esp,%ebp
c0002905:	53                   	push   %ebx
c0002906:	83 ec 04             	sub    $0x4,%esp
c0002909:	e8 6a ed ff ff       	call   c0001678 <__x86.get_pc_thunk.bx>
c000290e:	81 c3 f2 56 00 00    	add    $0x56f2,%ebx
c0002914:	83 ec 0c             	sub    $0xc,%esp
c0002917:	8d 83 07 d4 ff ff    	lea    -0x2bf9(%ebx),%eax
c000291d:	50                   	push   %eax
c000291e:	e8 a0 fa ff ff       	call   c00023c3 <put_str>
c0002923:	83 c4 10             	add    $0x10,%esp
c0002926:	8b 45 0c             	mov    0xc(%ebp),%eax
c0002929:	83 ec 0c             	sub    $0xc,%esp
c000292c:	50                   	push   %eax
c000292d:	e8 2e fa ff ff       	call   c0002360 <put_int>
c0002932:	83 c4 10             	add    $0x10,%esp
c0002935:	83 ec 0c             	sub    $0xc,%esp
c0002938:	8d 83 24 d4 ff ff    	lea    -0x2bdc(%ebx),%eax
c000293e:	50                   	push   %eax
c000293f:	e8 7f fa ff ff       	call   c00023c3 <put_str>
c0002944:	83 c4 10             	add    $0x10,%esp
c0002947:	8b 45 10             	mov    0x10(%ebp),%eax
c000294a:	83 ec 0c             	sub    $0xc,%esp
c000294d:	50                   	push   %eax
c000294e:	e8 0d fa ff ff       	call   c0002360 <put_int>
c0002953:	83 c4 10             	add    $0x10,%esp
c0002956:	83 ec 0c             	sub    $0xc,%esp
c0002959:	8d 83 45 d4 ff ff    	lea    -0x2bbb(%ebx),%eax
c000295f:	50                   	push   %eax
c0002960:	e8 5e fa ff ff       	call   c00023c3 <put_str>
c0002965:	83 c4 10             	add    $0x10,%esp
c0002968:	8b 45 08             	mov    0x8(%ebp),%eax
c000296b:	83 ec 0c             	sub    $0xc,%esp
c000296e:	50                   	push   %eax
c000296f:	e8 ec f9 ff ff       	call   c0002360 <put_int>
c0002974:	83 c4 10             	add    $0x10,%esp
c0002977:	83 ec 0c             	sub    $0xc,%esp
c000297a:	6a 0a                	push   $0xa
c000297c:	e8 60 fa ff ff       	call   c00023e1 <put_char>
c0002981:	83 c4 10             	add    $0x10,%esp
c0002984:	90                   	nop
c0002985:	8b 5d fc             	mov    -0x4(%ebp),%ebx
c0002988:	c9                   	leave  
c0002989:	c3                   	ret    

c000298a <printUserPoolInfo>:
c000298a:	f3 0f 1e fb          	endbr32 
c000298e:	55                   	push   %ebp
c000298f:	89 e5                	mov    %esp,%ebp
c0002991:	53                   	push   %ebx
c0002992:	83 ec 04             	sub    $0x4,%esp
c0002995:	e8 de ec ff ff       	call   c0001678 <__x86.get_pc_thunk.bx>
c000299a:	81 c3 66 56 00 00    	add    $0x5666,%ebx
c00029a0:	83 ec 0c             	sub    $0xc,%esp
c00029a3:	8d 83 5c d4 ff ff    	lea    -0x2ba4(%ebx),%eax
c00029a9:	50                   	push   %eax
c00029aa:	e8 14 fa ff ff       	call   c00023c3 <put_str>
c00029af:	83 c4 10             	add    $0x10,%esp
c00029b2:	8b 45 0c             	mov    0xc(%ebp),%eax
c00029b5:	83 ec 0c             	sub    $0xc,%esp
c00029b8:	50                   	push   %eax
c00029b9:	e8 a2 f9 ff ff       	call   c0002360 <put_int>
c00029be:	83 c4 10             	add    $0x10,%esp
c00029c1:	83 ec 0c             	sub    $0xc,%esp
c00029c4:	8d 83 78 d4 ff ff    	lea    -0x2b88(%ebx),%eax
c00029ca:	50                   	push   %eax
c00029cb:	e8 f3 f9 ff ff       	call   c00023c3 <put_str>
c00029d0:	83 c4 10             	add    $0x10,%esp
c00029d3:	8b 45 10             	mov    0x10(%ebp),%eax
c00029d6:	83 ec 0c             	sub    $0xc,%esp
c00029d9:	50                   	push   %eax
c00029da:	e8 81 f9 ff ff       	call   c0002360 <put_int>
c00029df:	83 c4 10             	add    $0x10,%esp
c00029e2:	83 ec 0c             	sub    $0xc,%esp
c00029e5:	6a 0a                	push   $0xa
c00029e7:	e8 f5 f9 ff ff       	call   c00023e1 <put_char>
c00029ec:	83 c4 10             	add    $0x10,%esp
c00029ef:	90                   	nop
c00029f0:	8b 5d fc             	mov    -0x4(%ebp),%ebx
c00029f3:	c9                   	leave  
c00029f4:	c3                   	ret    

c00029f5 <vaddr_get>:
c00029f5:	f3 0f 1e fb          	endbr32 
c00029f9:	55                   	push   %ebp
c00029fa:	89 e5                	mov    %esp,%ebp
c00029fc:	53                   	push   %ebx
c00029fd:	83 ec 14             	sub    $0x14,%esp
c0002a00:	e8 73 ec ff ff       	call   c0001678 <__x86.get_pc_thunk.bx>
c0002a05:	81 c3 fb 55 00 00    	add    $0x55fb,%ebx
c0002a0b:	c7 45 f4 00 00 00 00 	movl   $0x0,-0xc(%ebp)
c0002a12:	c7 45 ec ff ff ff ff 	movl   $0xffffffff,-0x14(%ebp)
c0002a19:	c7 45 f0 00 00 00 00 	movl   $0x0,-0x10(%ebp)
c0002a20:	83 7d 08 01          	cmpl   $0x1,0x8(%ebp)
c0002a24:	75 67                	jne    c0002a8d <vaddr_get+0x98>
c0002a26:	83 ec 08             	sub    $0x8,%esp
c0002a29:	ff 75 0c             	pushl  0xc(%ebp)
c0002a2c:	c7 c0 cc 85 00 c0    	mov    $0xc00085cc,%eax
c0002a32:	50                   	push   %eax
c0002a33:	e8 fb fa ff ff       	call   c0002533 <bitmap_scan>
c0002a38:	83 c4 10             	add    $0x10,%esp
c0002a3b:	89 45 ec             	mov    %eax,-0x14(%ebp)
c0002a3e:	83 7d ec ff          	cmpl   $0xffffffff,-0x14(%ebp)
c0002a42:	75 2b                	jne    c0002a6f <vaddr_get+0x7a>
c0002a44:	b8 00 00 00 00       	mov    $0x0,%eax
c0002a49:	e9 ab 00 00 00       	jmp    c0002af9 <vaddr_get+0x104>
c0002a4e:	8b 55 ec             	mov    -0x14(%ebp),%edx
c0002a51:	8b 45 f0             	mov    -0x10(%ebp),%eax
c0002a54:	01 d0                	add    %edx,%eax
c0002a56:	83 ec 04             	sub    $0x4,%esp
c0002a59:	6a 01                	push   $0x1
c0002a5b:	50                   	push   %eax
c0002a5c:	c7 c0 cc 85 00 c0    	mov    $0xc00085cc,%eax
c0002a62:	50                   	push   %eax
c0002a63:	e8 e1 fb ff ff       	call   c0002649 <bitmap_set>
c0002a68:	83 c4 10             	add    $0x10,%esp
c0002a6b:	83 45 f0 01          	addl   $0x1,-0x10(%ebp)
c0002a6f:	8b 45 f0             	mov    -0x10(%ebp),%eax
c0002a72:	3b 45 0c             	cmp    0xc(%ebp),%eax
c0002a75:	72 d7                	jb     c0002a4e <vaddr_get+0x59>
c0002a77:	c7 c0 cc 85 00 c0    	mov    $0xc00085cc,%eax
c0002a7d:	8b 40 08             	mov    0x8(%eax),%eax
c0002a80:	8b 55 ec             	mov    -0x14(%ebp),%edx
c0002a83:	c1 e2 0c             	shl    $0xc,%edx
c0002a86:	01 d0                	add    %edx,%eax
c0002a88:	89 45 f4             	mov    %eax,-0xc(%ebp)
c0002a8b:	eb 69                	jmp    c0002af6 <vaddr_get+0x101>
c0002a8d:	e8 fa 0a 00 00       	call   c000358c <running_thread>
c0002a92:	89 45 e8             	mov    %eax,-0x18(%ebp)
c0002a95:	8b 45 e8             	mov    -0x18(%ebp),%eax
c0002a98:	83 c0 34             	add    $0x34,%eax
c0002a9b:	83 ec 08             	sub    $0x8,%esp
c0002a9e:	ff 75 0c             	pushl  0xc(%ebp)
c0002aa1:	50                   	push   %eax
c0002aa2:	e8 8c fa ff ff       	call   c0002533 <bitmap_scan>
c0002aa7:	83 c4 10             	add    $0x10,%esp
c0002aaa:	89 45 ec             	mov    %eax,-0x14(%ebp)
c0002aad:	83 7d ec ff          	cmpl   $0xffffffff,-0x14(%ebp)
c0002ab1:	75 2a                	jne    c0002add <vaddr_get+0xe8>
c0002ab3:	b8 00 00 00 00       	mov    $0x0,%eax
c0002ab8:	eb 3f                	jmp    c0002af9 <vaddr_get+0x104>
c0002aba:	8b 45 f0             	mov    -0x10(%ebp),%eax
c0002abd:	8d 50 01             	lea    0x1(%eax),%edx
c0002ac0:	89 55 f0             	mov    %edx,-0x10(%ebp)
c0002ac3:	8b 55 ec             	mov    -0x14(%ebp),%edx
c0002ac6:	01 c2                	add    %eax,%edx
c0002ac8:	8b 45 e8             	mov    -0x18(%ebp),%eax
c0002acb:	83 c0 34             	add    $0x34,%eax
c0002ace:	83 ec 04             	sub    $0x4,%esp
c0002ad1:	6a 01                	push   $0x1
c0002ad3:	52                   	push   %edx
c0002ad4:	50                   	push   %eax
c0002ad5:	e8 6f fb ff ff       	call   c0002649 <bitmap_set>
c0002ada:	83 c4 10             	add    $0x10,%esp
c0002add:	8b 45 f0             	mov    -0x10(%ebp),%eax
c0002ae0:	3b 45 0c             	cmp    0xc(%ebp),%eax
c0002ae3:	72 d5                	jb     c0002aba <vaddr_get+0xc5>
c0002ae5:	8b 45 e8             	mov    -0x18(%ebp),%eax
c0002ae8:	8b 40 3c             	mov    0x3c(%eax),%eax
c0002aeb:	8b 55 ec             	mov    -0x14(%ebp),%edx
c0002aee:	c1 e2 0c             	shl    $0xc,%edx
c0002af1:	01 d0                	add    %edx,%eax
c0002af3:	89 45 f4             	mov    %eax,-0xc(%ebp)
c0002af6:	8b 45 f4             	mov    -0xc(%ebp),%eax
c0002af9:	8b 5d fc             	mov    -0x4(%ebp),%ebx
c0002afc:	c9                   	leave  
c0002afd:	c3                   	ret    

c0002afe <pte_ptr>:
c0002afe:	f3 0f 1e fb          	endbr32 
c0002b02:	55                   	push   %ebp
c0002b03:	89 e5                	mov    %esp,%ebp
c0002b05:	e8 6a eb ff ff       	call   c0001674 <__x86.get_pc_thunk.ax>
c0002b0a:	05 f6 54 00 00       	add    $0x54f6,%eax
c0002b0f:	8b 45 08             	mov    0x8(%ebp),%eax
c0002b12:	c1 e8 0a             	shr    $0xa,%eax
c0002b15:	25 00 f0 3f 00       	and    $0x3ff000,%eax
c0002b1a:	89 c2                	mov    %eax,%edx
c0002b1c:	8b 45 08             	mov    0x8(%ebp),%eax
c0002b1f:	c1 e8 0c             	shr    $0xc,%eax
c0002b22:	c1 e0 02             	shl    $0x2,%eax
c0002b25:	25 fc 0f 00 00       	and    $0xffc,%eax
c0002b2a:	09 d0                	or     %edx,%eax
c0002b2c:	2d 00 00 40 00       	sub    $0x400000,%eax
c0002b31:	5d                   	pop    %ebp
c0002b32:	c3                   	ret    

c0002b33 <pde_ptr>:
c0002b33:	f3 0f 1e fb          	endbr32 
c0002b37:	55                   	push   %ebp
c0002b38:	89 e5                	mov    %esp,%ebp
c0002b3a:	e8 35 eb ff ff       	call   c0001674 <__x86.get_pc_thunk.ax>
c0002b3f:	05 c1 54 00 00       	add    $0x54c1,%eax
c0002b44:	8b 45 08             	mov    0x8(%ebp),%eax
c0002b47:	c1 e8 16             	shr    $0x16,%eax
c0002b4a:	c1 e0 02             	shl    $0x2,%eax
c0002b4d:	2d 00 10 00 00       	sub    $0x1000,%eax
c0002b52:	5d                   	pop    %ebp
c0002b53:	c3                   	ret    

c0002b54 <palloc>:
c0002b54:	f3 0f 1e fb          	endbr32 
c0002b58:	55                   	push   %ebp
c0002b59:	89 e5                	mov    %esp,%ebp
c0002b5b:	53                   	push   %ebx
c0002b5c:	83 ec 14             	sub    $0x14,%esp
c0002b5f:	e8 14 eb ff ff       	call   c0001678 <__x86.get_pc_thunk.bx>
c0002b64:	81 c3 9c 54 00 00    	add    $0x549c,%ebx
c0002b6a:	8b 45 08             	mov    0x8(%ebp),%eax
c0002b6d:	83 ec 08             	sub    $0x8,%esp
c0002b70:	6a 01                	push   $0x1
c0002b72:	50                   	push   %eax
c0002b73:	e8 bb f9 ff ff       	call   c0002533 <bitmap_scan>
c0002b78:	83 c4 10             	add    $0x10,%esp
c0002b7b:	89 45 f4             	mov    %eax,-0xc(%ebp)
c0002b7e:	83 7d f4 ff          	cmpl   $0xffffffff,-0xc(%ebp)
c0002b82:	75 07                	jne    c0002b8b <palloc+0x37>
c0002b84:	b8 00 00 00 00       	mov    $0x0,%eax
c0002b89:	eb 2b                	jmp    c0002bb6 <palloc+0x62>
c0002b8b:	8b 55 f4             	mov    -0xc(%ebp),%edx
c0002b8e:	8b 45 08             	mov    0x8(%ebp),%eax
c0002b91:	83 ec 04             	sub    $0x4,%esp
c0002b94:	6a 01                	push   $0x1
c0002b96:	52                   	push   %edx
c0002b97:	50                   	push   %eax
c0002b98:	e8 ac fa ff ff       	call   c0002649 <bitmap_set>
c0002b9d:	83 c4 10             	add    $0x10,%esp
c0002ba0:	8b 45 f4             	mov    -0xc(%ebp),%eax
c0002ba3:	c1 e0 0c             	shl    $0xc,%eax
c0002ba6:	89 c2                	mov    %eax,%edx
c0002ba8:	8b 45 08             	mov    0x8(%ebp),%eax
c0002bab:	8b 40 08             	mov    0x8(%eax),%eax
c0002bae:	01 d0                	add    %edx,%eax
c0002bb0:	89 45 f0             	mov    %eax,-0x10(%ebp)
c0002bb3:	8b 45 f0             	mov    -0x10(%ebp),%eax
c0002bb6:	8b 5d fc             	mov    -0x4(%ebp),%ebx
c0002bb9:	c9                   	leave  
c0002bba:	c3                   	ret    

c0002bbb <page_table_add>:
c0002bbb:	f3 0f 1e fb          	endbr32 
c0002bbf:	55                   	push   %ebp
c0002bc0:	89 e5                	mov    %esp,%ebp
c0002bc2:	53                   	push   %ebx
c0002bc3:	83 ec 24             	sub    $0x24,%esp
c0002bc6:	e8 ad ea ff ff       	call   c0001678 <__x86.get_pc_thunk.bx>
c0002bcb:	81 c3 35 54 00 00    	add    $0x5435,%ebx
c0002bd1:	8b 45 08             	mov    0x8(%ebp),%eax
c0002bd4:	89 45 f4             	mov    %eax,-0xc(%ebp)
c0002bd7:	8b 45 0c             	mov    0xc(%ebp),%eax
c0002bda:	89 45 f0             	mov    %eax,-0x10(%ebp)
c0002bdd:	ff 75 f4             	pushl  -0xc(%ebp)
c0002be0:	e8 4e ff ff ff       	call   c0002b33 <pde_ptr>
c0002be5:	83 c4 04             	add    $0x4,%esp
c0002be8:	89 45 ec             	mov    %eax,-0x14(%ebp)
c0002beb:	ff 75 f4             	pushl  -0xc(%ebp)
c0002bee:	e8 0b ff ff ff       	call   c0002afe <pte_ptr>
c0002bf3:	83 c4 04             	add    $0x4,%esp
c0002bf6:	89 45 e8             	mov    %eax,-0x18(%ebp)
c0002bf9:	8b 45 ec             	mov    -0x14(%ebp),%eax
c0002bfc:	8b 00                	mov    (%eax),%eax
c0002bfe:	83 e0 01             	and    $0x1,%eax
c0002c01:	85 c0                	test   %eax,%eax
c0002c03:	74 1b                	je     c0002c20 <page_table_add+0x65>
c0002c05:	8b 45 e8             	mov    -0x18(%ebp),%eax
c0002c08:	8b 00                	mov    (%eax),%eax
c0002c0a:	83 e0 01             	and    $0x1,%eax
c0002c0d:	85 c0                	test   %eax,%eax
c0002c0f:	75 59                	jne    c0002c6a <page_table_add+0xaf>
c0002c11:	8b 45 f0             	mov    -0x10(%ebp),%eax
c0002c14:	83 c8 07             	or     $0x7,%eax
c0002c17:	89 c2                	mov    %eax,%edx
c0002c19:	8b 45 e8             	mov    -0x18(%ebp),%eax
c0002c1c:	89 10                	mov    %edx,(%eax)
c0002c1e:	eb 4a                	jmp    c0002c6a <page_table_add+0xaf>
c0002c20:	83 ec 0c             	sub    $0xc,%esp
c0002c23:	c7 c0 e0 85 00 c0    	mov    $0xc00085e0,%eax
c0002c29:	50                   	push   %eax
c0002c2a:	e8 25 ff ff ff       	call   c0002b54 <palloc>
c0002c2f:	83 c4 10             	add    $0x10,%esp
c0002c32:	89 45 e4             	mov    %eax,-0x1c(%ebp)
c0002c35:	8b 45 e4             	mov    -0x1c(%ebp),%eax
c0002c38:	83 c8 07             	or     $0x7,%eax
c0002c3b:	89 c2                	mov    %eax,%edx
c0002c3d:	8b 45 ec             	mov    -0x14(%ebp),%eax
c0002c40:	89 10                	mov    %edx,(%eax)
c0002c42:	8b 45 e8             	mov    -0x18(%ebp),%eax
c0002c45:	25 00 f0 ff ff       	and    $0xfffff000,%eax
c0002c4a:	83 ec 04             	sub    $0x4,%esp
c0002c4d:	68 00 10 00 00       	push   $0x1000
c0002c52:	6a 00                	push   $0x0
c0002c54:	50                   	push   %eax
c0002c55:	e8 a7 03 00 00       	call   c0003001 <memset>
c0002c5a:	83 c4 10             	add    $0x10,%esp
c0002c5d:	8b 45 f0             	mov    -0x10(%ebp),%eax
c0002c60:	83 c8 07             	or     $0x7,%eax
c0002c63:	89 c2                	mov    %eax,%edx
c0002c65:	8b 45 e8             	mov    -0x18(%ebp),%eax
c0002c68:	89 10                	mov    %edx,(%eax)
c0002c6a:	90                   	nop
c0002c6b:	8b 5d fc             	mov    -0x4(%ebp),%ebx
c0002c6e:	c9                   	leave  
c0002c6f:	c3                   	ret    

c0002c70 <malloc_page>:
c0002c70:	f3 0f 1e fb          	endbr32 
c0002c74:	55                   	push   %ebp
c0002c75:	89 e5                	mov    %esp,%ebp
c0002c77:	53                   	push   %ebx
c0002c78:	83 ec 24             	sub    $0x24,%esp
c0002c7b:	e8 f8 e9 ff ff       	call   c0001678 <__x86.get_pc_thunk.bx>
c0002c80:	81 c3 80 53 00 00    	add    $0x5380,%ebx
c0002c86:	83 7d 0c 00          	cmpl   $0x0,0xc(%ebp)
c0002c8a:	74 09                	je     c0002c95 <malloc_page+0x25>
c0002c8c:	81 7d 0c ff 0e 00 00 	cmpl   $0xeff,0xc(%ebp)
c0002c93:	76 22                	jbe    c0002cb7 <malloc_page+0x47>
c0002c95:	8d 83 98 d4 ff ff    	lea    -0x2b68(%ebx),%eax
c0002c9b:	50                   	push   %eax
c0002c9c:	8d 83 10 d5 ff ff    	lea    -0x2af0(%ebx),%eax
c0002ca2:	50                   	push   %eax
c0002ca3:	68 d3 00 00 00       	push   $0xd3
c0002ca8:	8d 83 bc d4 ff ff    	lea    -0x2b44(%ebx),%eax
c0002cae:	50                   	push   %eax
c0002caf:	e8 f4 07 00 00       	call   c00034a8 <panic_spin>
c0002cb4:	83 c4 10             	add    $0x10,%esp
c0002cb7:	83 ec 08             	sub    $0x8,%esp
c0002cba:	ff 75 0c             	pushl  0xc(%ebp)
c0002cbd:	ff 75 08             	pushl  0x8(%ebp)
c0002cc0:	e8 30 fd ff ff       	call   c00029f5 <vaddr_get>
c0002cc5:	83 c4 10             	add    $0x10,%esp
c0002cc8:	89 45 ec             	mov    %eax,-0x14(%ebp)
c0002ccb:	83 7d ec 00          	cmpl   $0x0,-0x14(%ebp)
c0002ccf:	75 07                	jne    c0002cd8 <malloc_page+0x68>
c0002cd1:	b8 00 00 00 00       	mov    $0x0,%eax
c0002cd6:	eb 6d                	jmp    c0002d45 <malloc_page+0xd5>
c0002cd8:	8b 45 ec             	mov    -0x14(%ebp),%eax
c0002cdb:	89 45 f4             	mov    %eax,-0xc(%ebp)
c0002cde:	8b 45 0c             	mov    0xc(%ebp),%eax
c0002ce1:	89 45 f0             	mov    %eax,-0x10(%ebp)
c0002ce4:	8b 45 08             	mov    0x8(%ebp),%eax
c0002ce7:	83 e0 01             	and    $0x1,%eax
c0002cea:	85 c0                	test   %eax,%eax
c0002cec:	74 08                	je     c0002cf6 <malloc_page+0x86>
c0002cee:	c7 c0 e0 85 00 c0    	mov    $0xc00085e0,%eax
c0002cf4:	eb 06                	jmp    c0002cfc <malloc_page+0x8c>
c0002cf6:	c7 c0 a0 85 00 c0    	mov    $0xc00085a0,%eax
c0002cfc:	89 45 e8             	mov    %eax,-0x18(%ebp)
c0002cff:	eb 3b                	jmp    c0002d3c <malloc_page+0xcc>
c0002d01:	83 ec 0c             	sub    $0xc,%esp
c0002d04:	ff 75 e8             	pushl  -0x18(%ebp)
c0002d07:	e8 48 fe ff ff       	call   c0002b54 <palloc>
c0002d0c:	83 c4 10             	add    $0x10,%esp
c0002d0f:	89 45 e4             	mov    %eax,-0x1c(%ebp)
c0002d12:	83 7d e4 00          	cmpl   $0x0,-0x1c(%ebp)
c0002d16:	75 07                	jne    c0002d1f <malloc_page+0xaf>
c0002d18:	b8 00 00 00 00       	mov    $0x0,%eax
c0002d1d:	eb 26                	jmp    c0002d45 <malloc_page+0xd5>
c0002d1f:	8b 45 f4             	mov    -0xc(%ebp),%eax
c0002d22:	83 ec 08             	sub    $0x8,%esp
c0002d25:	ff 75 e4             	pushl  -0x1c(%ebp)
c0002d28:	50                   	push   %eax
c0002d29:	e8 8d fe ff ff       	call   c0002bbb <page_table_add>
c0002d2e:	83 c4 10             	add    $0x10,%esp
c0002d31:	81 45 f4 00 10 00 00 	addl   $0x1000,-0xc(%ebp)
c0002d38:	83 6d f0 01          	subl   $0x1,-0x10(%ebp)
c0002d3c:	83 7d f0 00          	cmpl   $0x0,-0x10(%ebp)
c0002d40:	75 bf                	jne    c0002d01 <malloc_page+0x91>
c0002d42:	8b 45 ec             	mov    -0x14(%ebp),%eax
c0002d45:	8b 5d fc             	mov    -0x4(%ebp),%ebx
c0002d48:	c9                   	leave  
c0002d49:	c3                   	ret    

c0002d4a <get_kernel_pages>:
c0002d4a:	f3 0f 1e fb          	endbr32 
c0002d4e:	55                   	push   %ebp
c0002d4f:	89 e5                	mov    %esp,%ebp
c0002d51:	53                   	push   %ebx
c0002d52:	83 ec 14             	sub    $0x14,%esp
c0002d55:	e8 1e e9 ff ff       	call   c0001678 <__x86.get_pc_thunk.bx>
c0002d5a:	81 c3 a6 52 00 00    	add    $0x52a6,%ebx
c0002d60:	83 ec 08             	sub    $0x8,%esp
c0002d63:	ff 75 08             	pushl  0x8(%ebp)
c0002d66:	6a 01                	push   $0x1
c0002d68:	e8 03 ff ff ff       	call   c0002c70 <malloc_page>
c0002d6d:	83 c4 10             	add    $0x10,%esp
c0002d70:	89 45 f4             	mov    %eax,-0xc(%ebp)
c0002d73:	83 7d f4 00          	cmpl   $0x0,-0xc(%ebp)
c0002d77:	74 17                	je     c0002d90 <get_kernel_pages+0x46>
c0002d79:	8b 45 08             	mov    0x8(%ebp),%eax
c0002d7c:	c1 e0 0c             	shl    $0xc,%eax
c0002d7f:	83 ec 04             	sub    $0x4,%esp
c0002d82:	50                   	push   %eax
c0002d83:	6a 00                	push   $0x0
c0002d85:	ff 75 f4             	pushl  -0xc(%ebp)
c0002d88:	e8 74 02 00 00       	call   c0003001 <memset>
c0002d8d:	83 c4 10             	add    $0x10,%esp
c0002d90:	8b 45 f4             	mov    -0xc(%ebp),%eax
c0002d93:	8b 5d fc             	mov    -0x4(%ebp),%ebx
c0002d96:	c9                   	leave  
c0002d97:	c3                   	ret    

c0002d98 <get_user_pages>:
c0002d98:	f3 0f 1e fb          	endbr32 
c0002d9c:	55                   	push   %ebp
c0002d9d:	89 e5                	mov    %esp,%ebp
c0002d9f:	53                   	push   %ebx
c0002da0:	83 ec 14             	sub    $0x14,%esp
c0002da3:	e8 d0 e8 ff ff       	call   c0001678 <__x86.get_pc_thunk.bx>
c0002da8:	81 c3 58 52 00 00    	add    $0x5258,%ebx
c0002dae:	83 ec 0c             	sub    $0xc,%esp
c0002db1:	c7 c0 a0 85 00 c0    	mov    $0xc00085a0,%eax
c0002db7:	8d 40 10             	lea    0x10(%eax),%eax
c0002dba:	50                   	push   %eax
c0002dbb:	e8 25 13 00 00       	call   c00040e5 <lock_acquire>
c0002dc0:	83 c4 10             	add    $0x10,%esp
c0002dc3:	83 ec 08             	sub    $0x8,%esp
c0002dc6:	ff 75 08             	pushl  0x8(%ebp)
c0002dc9:	6a 02                	push   $0x2
c0002dcb:	e8 a0 fe ff ff       	call   c0002c70 <malloc_page>
c0002dd0:	83 c4 10             	add    $0x10,%esp
c0002dd3:	89 45 f4             	mov    %eax,-0xc(%ebp)
c0002dd6:	8b 45 08             	mov    0x8(%ebp),%eax
c0002dd9:	c1 e0 0c             	shl    $0xc,%eax
c0002ddc:	83 ec 04             	sub    $0x4,%esp
c0002ddf:	50                   	push   %eax
c0002de0:	6a 00                	push   $0x0
c0002de2:	ff 75 f4             	pushl  -0xc(%ebp)
c0002de5:	e8 17 02 00 00       	call   c0003001 <memset>
c0002dea:	83 c4 10             	add    $0x10,%esp
c0002ded:	83 ec 0c             	sub    $0xc,%esp
c0002df0:	c7 c0 a0 85 00 c0    	mov    $0xc00085a0,%eax
c0002df6:	8d 40 10             	lea    0x10(%eax),%eax
c0002df9:	50                   	push   %eax
c0002dfa:	e8 72 13 00 00       	call   c0004171 <lock_release>
c0002dff:	83 c4 10             	add    $0x10,%esp
c0002e02:	8b 45 f4             	mov    -0xc(%ebp),%eax
c0002e05:	8b 5d fc             	mov    -0x4(%ebp),%ebx
c0002e08:	c9                   	leave  
c0002e09:	c3                   	ret    

c0002e0a <get_a_page>:
c0002e0a:	f3 0f 1e fb          	endbr32 
c0002e0e:	55                   	push   %ebp
c0002e0f:	89 e5                	mov    %esp,%ebp
c0002e11:	53                   	push   %ebx
c0002e12:	83 ec 14             	sub    $0x14,%esp
c0002e15:	e8 5e e8 ff ff       	call   c0001678 <__x86.get_pc_thunk.bx>
c0002e1a:	81 c3 e6 51 00 00    	add    $0x51e6,%ebx
c0002e20:	8b 45 08             	mov    0x8(%ebp),%eax
c0002e23:	83 e0 01             	and    $0x1,%eax
c0002e26:	85 c0                	test   %eax,%eax
c0002e28:	74 08                	je     c0002e32 <get_a_page+0x28>
c0002e2a:	c7 c0 e0 85 00 c0    	mov    $0xc00085e0,%eax
c0002e30:	eb 06                	jmp    c0002e38 <get_a_page+0x2e>
c0002e32:	c7 c0 a0 85 00 c0    	mov    $0xc00085a0,%eax
c0002e38:	89 45 f4             	mov    %eax,-0xc(%ebp)
c0002e3b:	8b 45 f4             	mov    -0xc(%ebp),%eax
c0002e3e:	83 c0 10             	add    $0x10,%eax
c0002e41:	83 ec 0c             	sub    $0xc,%esp
c0002e44:	50                   	push   %eax
c0002e45:	e8 9b 12 00 00       	call   c00040e5 <lock_acquire>
c0002e4a:	83 c4 10             	add    $0x10,%esp
c0002e4d:	e8 3a 07 00 00       	call   c000358c <running_thread>
c0002e52:	89 45 f0             	mov    %eax,-0x10(%ebp)
c0002e55:	c7 45 ec ff ff ff ff 	movl   $0xffffffff,-0x14(%ebp)
c0002e5c:	8b 45 f0             	mov    -0x10(%ebp),%eax
c0002e5f:	8b 40 30             	mov    0x30(%eax),%eax
c0002e62:	85 c0                	test   %eax,%eax
c0002e64:	74 33                	je     c0002e99 <get_a_page+0x8f>
c0002e66:	83 7d 08 02          	cmpl   $0x2,0x8(%ebp)
c0002e6a:	75 2d                	jne    c0002e99 <get_a_page+0x8f>
c0002e6c:	8b 45 f0             	mov    -0x10(%ebp),%eax
c0002e6f:	8b 40 3c             	mov    0x3c(%eax),%eax
c0002e72:	8b 55 0c             	mov    0xc(%ebp),%edx
c0002e75:	29 c2                	sub    %eax,%edx
c0002e77:	89 d0                	mov    %edx,%eax
c0002e79:	c1 e8 0c             	shr    $0xc,%eax
c0002e7c:	89 45 ec             	mov    %eax,-0x14(%ebp)
c0002e7f:	8b 45 ec             	mov    -0x14(%ebp),%eax
c0002e82:	8b 55 f0             	mov    -0x10(%ebp),%edx
c0002e85:	83 c2 34             	add    $0x34,%edx
c0002e88:	83 ec 04             	sub    $0x4,%esp
c0002e8b:	6a 01                	push   $0x1
c0002e8d:	50                   	push   %eax
c0002e8e:	52                   	push   %edx
c0002e8f:	e8 b5 f7 ff ff       	call   c0002649 <bitmap_set>
c0002e94:	83 c4 10             	add    $0x10,%esp
c0002e97:	eb 62                	jmp    c0002efb <get_a_page+0xf1>
c0002e99:	8b 45 f0             	mov    -0x10(%ebp),%eax
c0002e9c:	8b 40 30             	mov    0x30(%eax),%eax
c0002e9f:	85 c0                	test   %eax,%eax
c0002ea1:	75 36                	jne    c0002ed9 <get_a_page+0xcf>
c0002ea3:	83 7d 08 01          	cmpl   $0x1,0x8(%ebp)
c0002ea7:	75 30                	jne    c0002ed9 <get_a_page+0xcf>
c0002ea9:	c7 c0 cc 85 00 c0    	mov    $0xc00085cc,%eax
c0002eaf:	8b 40 08             	mov    0x8(%eax),%eax
c0002eb2:	8b 55 0c             	mov    0xc(%ebp),%edx
c0002eb5:	29 c2                	sub    %eax,%edx
c0002eb7:	89 d0                	mov    %edx,%eax
c0002eb9:	c1 e8 0c             	shr    $0xc,%eax
c0002ebc:	89 45 ec             	mov    %eax,-0x14(%ebp)
c0002ebf:	8b 45 ec             	mov    -0x14(%ebp),%eax
c0002ec2:	83 ec 04             	sub    $0x4,%esp
c0002ec5:	6a 01                	push   $0x1
c0002ec7:	50                   	push   %eax
c0002ec8:	c7 c0 cc 85 00 c0    	mov    $0xc00085cc,%eax
c0002ece:	50                   	push   %eax
c0002ecf:	e8 75 f7 ff ff       	call   c0002649 <bitmap_set>
c0002ed4:	83 c4 10             	add    $0x10,%esp
c0002ed7:	eb 22                	jmp    c0002efb <get_a_page+0xf1>
c0002ed9:	8d 83 cc d4 ff ff    	lea    -0x2b34(%ebx),%eax
c0002edf:	50                   	push   %eax
c0002ee0:	8d 83 1c d5 ff ff    	lea    -0x2ae4(%ebx),%eax
c0002ee6:	50                   	push   %eax
c0002ee7:	68 1b 01 00 00       	push   $0x11b
c0002eec:	8d 83 bc d4 ff ff    	lea    -0x2b44(%ebx),%eax
c0002ef2:	50                   	push   %eax
c0002ef3:	e8 b0 05 00 00       	call   c00034a8 <panic_spin>
c0002ef8:	83 c4 10             	add    $0x10,%esp
c0002efb:	83 ec 0c             	sub    $0xc,%esp
c0002efe:	ff 75 f4             	pushl  -0xc(%ebp)
c0002f01:	e8 4e fc ff ff       	call   c0002b54 <palloc>
c0002f06:	83 c4 10             	add    $0x10,%esp
c0002f09:	89 45 e8             	mov    %eax,-0x18(%ebp)
c0002f0c:	83 7d e8 00          	cmpl   $0x0,-0x18(%ebp)
c0002f10:	75 07                	jne    c0002f19 <get_a_page+0x10f>
c0002f12:	b8 00 00 00 00       	mov    $0x0,%eax
c0002f17:	eb 27                	jmp    c0002f40 <get_a_page+0x136>
c0002f19:	8b 45 0c             	mov    0xc(%ebp),%eax
c0002f1c:	83 ec 08             	sub    $0x8,%esp
c0002f1f:	ff 75 e8             	pushl  -0x18(%ebp)
c0002f22:	50                   	push   %eax
c0002f23:	e8 93 fc ff ff       	call   c0002bbb <page_table_add>
c0002f28:	83 c4 10             	add    $0x10,%esp
c0002f2b:	8b 45 f4             	mov    -0xc(%ebp),%eax
c0002f2e:	83 c0 10             	add    $0x10,%eax
c0002f31:	83 ec 0c             	sub    $0xc,%esp
c0002f34:	50                   	push   %eax
c0002f35:	e8 37 12 00 00       	call   c0004171 <lock_release>
c0002f3a:	83 c4 10             	add    $0x10,%esp
c0002f3d:	8b 45 0c             	mov    0xc(%ebp),%eax
c0002f40:	8b 5d fc             	mov    -0x4(%ebp),%ebx
c0002f43:	c9                   	leave  
c0002f44:	c3                   	ret    

c0002f45 <addr_v2p>:
c0002f45:	f3 0f 1e fb          	endbr32 
c0002f49:	55                   	push   %ebp
c0002f4a:	89 e5                	mov    %esp,%ebp
c0002f4c:	83 ec 10             	sub    $0x10,%esp
c0002f4f:	e8 20 e7 ff ff       	call   c0001674 <__x86.get_pc_thunk.ax>
c0002f54:	05 ac 50 00 00       	add    $0x50ac,%eax
c0002f59:	ff 75 08             	pushl  0x8(%ebp)
c0002f5c:	e8 9d fb ff ff       	call   c0002afe <pte_ptr>
c0002f61:	83 c4 04             	add    $0x4,%esp
c0002f64:	89 45 fc             	mov    %eax,-0x4(%ebp)
c0002f67:	8b 45 fc             	mov    -0x4(%ebp),%eax
c0002f6a:	8b 00                	mov    (%eax),%eax
c0002f6c:	25 00 f0 ff ff       	and    $0xfffff000,%eax
c0002f71:	89 c2                	mov    %eax,%edx
c0002f73:	8b 45 08             	mov    0x8(%ebp),%eax
c0002f76:	25 ff 0f 00 00       	and    $0xfff,%eax
c0002f7b:	09 d0                	or     %edx,%eax
c0002f7d:	c9                   	leave  
c0002f7e:	c3                   	ret    

c0002f7f <mem_init>:
c0002f7f:	f3 0f 1e fb          	endbr32 
c0002f83:	55                   	push   %ebp
c0002f84:	89 e5                	mov    %esp,%ebp
c0002f86:	53                   	push   %ebx
c0002f87:	83 ec 14             	sub    $0x14,%esp
c0002f8a:	e8 e9 e6 ff ff       	call   c0001678 <__x86.get_pc_thunk.bx>
c0002f8f:	81 c3 71 50 00 00    	add    $0x5071,%ebx
c0002f95:	83 ec 0c             	sub    $0xc,%esp
c0002f98:	8d 83 e8 d4 ff ff    	lea    -0x2b18(%ebx),%eax
c0002f9e:	50                   	push   %eax
c0002f9f:	e8 1f f4 ff ff       	call   c00023c3 <put_str>
c0002fa4:	83 c4 10             	add    $0x10,%esp
c0002fa7:	83 ec 0c             	sub    $0xc,%esp
c0002faa:	c7 c0 e0 85 00 c0    	mov    $0xc00085e0,%eax
c0002fb0:	8d 40 10             	lea    0x10(%eax),%eax
c0002fb3:	50                   	push   %eax
c0002fb4:	e8 41 0f 00 00       	call   c0003efa <lock_init>
c0002fb9:	83 c4 10             	add    $0x10,%esp
c0002fbc:	83 ec 0c             	sub    $0xc,%esp
c0002fbf:	c7 c0 a0 85 00 c0    	mov    $0xc00085a0,%eax
c0002fc5:	8d 40 10             	lea    0x10(%eax),%eax
c0002fc8:	50                   	push   %eax
c0002fc9:	e8 2c 0f 00 00       	call   c0003efa <lock_init>
c0002fce:	83 c4 10             	add    $0x10,%esp
c0002fd1:	b8 00 0b 00 00       	mov    $0xb00,%eax
c0002fd6:	8b 00                	mov    (%eax),%eax
c0002fd8:	89 45 f4             	mov    %eax,-0xc(%ebp)
c0002fdb:	83 ec 0c             	sub    $0xc,%esp
c0002fde:	ff 75 f4             	pushl  -0xc(%ebp)
c0002fe1:	e8 2f f7 ff ff       	call   c0002715 <mem_pool_init>
c0002fe6:	83 c4 10             	add    $0x10,%esp
c0002fe9:	83 ec 0c             	sub    $0xc,%esp
c0002fec:	8d 83 fc d4 ff ff    	lea    -0x2b04(%ebx),%eax
c0002ff2:	50                   	push   %eax
c0002ff3:	e8 cb f3 ff ff       	call   c00023c3 <put_str>
c0002ff8:	83 c4 10             	add    $0x10,%esp
c0002ffb:	90                   	nop
c0002ffc:	8b 5d fc             	mov    -0x4(%ebp),%ebx
c0002fff:	c9                   	leave  
c0003000:	c3                   	ret    

c0003001 <memset>:
c0003001:	f3 0f 1e fb          	endbr32 
c0003005:	55                   	push   %ebp
c0003006:	89 e5                	mov    %esp,%ebp
c0003008:	53                   	push   %ebx
c0003009:	83 ec 24             	sub    $0x24,%esp
c000300c:	e8 63 e6 ff ff       	call   c0001674 <__x86.get_pc_thunk.ax>
c0003011:	05 ef 4f 00 00       	add    $0x4fef,%eax
c0003016:	8b 55 0c             	mov    0xc(%ebp),%edx
c0003019:	88 55 e4             	mov    %dl,-0x1c(%ebp)
c000301c:	83 7d 08 00          	cmpl   $0x0,0x8(%ebp)
c0003020:	75 21                	jne    c0003043 <memset+0x42>
c0003022:	8d 90 28 d5 ff ff    	lea    -0x2ad8(%eax),%edx
c0003028:	52                   	push   %edx
c0003029:	8d 90 a8 d5 ff ff    	lea    -0x2a58(%eax),%edx
c000302f:	52                   	push   %edx
c0003030:	6a 09                	push   $0x9
c0003032:	8d 90 38 d5 ff ff    	lea    -0x2ac8(%eax),%edx
c0003038:	52                   	push   %edx
c0003039:	89 c3                	mov    %eax,%ebx
c000303b:	e8 68 04 00 00       	call   c00034a8 <panic_spin>
c0003040:	83 c4 10             	add    $0x10,%esp
c0003043:	8b 45 08             	mov    0x8(%ebp),%eax
c0003046:	89 45 f4             	mov    %eax,-0xc(%ebp)
c0003049:	eb 0f                	jmp    c000305a <memset+0x59>
c000304b:	8b 45 f4             	mov    -0xc(%ebp),%eax
c000304e:	8d 50 01             	lea    0x1(%eax),%edx
c0003051:	89 55 f4             	mov    %edx,-0xc(%ebp)
c0003054:	0f b6 55 e4          	movzbl -0x1c(%ebp),%edx
c0003058:	88 10                	mov    %dl,(%eax)
c000305a:	8b 45 10             	mov    0x10(%ebp),%eax
c000305d:	8d 50 ff             	lea    -0x1(%eax),%edx
c0003060:	89 55 10             	mov    %edx,0x10(%ebp)
c0003063:	85 c0                	test   %eax,%eax
c0003065:	75 e4                	jne    c000304b <memset+0x4a>
c0003067:	90                   	nop
c0003068:	90                   	nop
c0003069:	8b 5d fc             	mov    -0x4(%ebp),%ebx
c000306c:	c9                   	leave  
c000306d:	c3                   	ret    

c000306e <memcpy>:
c000306e:	f3 0f 1e fb          	endbr32 
c0003072:	55                   	push   %ebp
c0003073:	89 e5                	mov    %esp,%ebp
c0003075:	53                   	push   %ebx
c0003076:	83 ec 14             	sub    $0x14,%esp
c0003079:	e8 f6 e5 ff ff       	call   c0001674 <__x86.get_pc_thunk.ax>
c000307e:	05 82 4f 00 00       	add    $0x4f82,%eax
c0003083:	83 7d 08 00          	cmpl   $0x0,0x8(%ebp)
c0003087:	74 06                	je     c000308f <memcpy+0x21>
c0003089:	83 7d 0c 00          	cmpl   $0x0,0xc(%ebp)
c000308d:	75 21                	jne    c00030b0 <memcpy+0x42>
c000308f:	8d 90 45 d5 ff ff    	lea    -0x2abb(%eax),%edx
c0003095:	52                   	push   %edx
c0003096:	8d 90 b0 d5 ff ff    	lea    -0x2a50(%eax),%edx
c000309c:	52                   	push   %edx
c000309d:	6a 13                	push   $0x13
c000309f:	8d 90 38 d5 ff ff    	lea    -0x2ac8(%eax),%edx
c00030a5:	52                   	push   %edx
c00030a6:	89 c3                	mov    %eax,%ebx
c00030a8:	e8 fb 03 00 00       	call   c00034a8 <panic_spin>
c00030ad:	83 c4 10             	add    $0x10,%esp
c00030b0:	8b 45 08             	mov    0x8(%ebp),%eax
c00030b3:	89 45 f4             	mov    %eax,-0xc(%ebp)
c00030b6:	8b 45 0c             	mov    0xc(%ebp),%eax
c00030b9:	89 45 f0             	mov    %eax,-0x10(%ebp)
c00030bc:	eb 17                	jmp    c00030d5 <memcpy+0x67>
c00030be:	8b 55 f0             	mov    -0x10(%ebp),%edx
c00030c1:	8d 42 01             	lea    0x1(%edx),%eax
c00030c4:	89 45 f0             	mov    %eax,-0x10(%ebp)
c00030c7:	8b 45 f4             	mov    -0xc(%ebp),%eax
c00030ca:	8d 48 01             	lea    0x1(%eax),%ecx
c00030cd:	89 4d f4             	mov    %ecx,-0xc(%ebp)
c00030d0:	0f b6 12             	movzbl (%edx),%edx
c00030d3:	88 10                	mov    %dl,(%eax)
c00030d5:	8b 45 10             	mov    0x10(%ebp),%eax
c00030d8:	8d 50 ff             	lea    -0x1(%eax),%edx
c00030db:	89 55 10             	mov    %edx,0x10(%ebp)
c00030de:	85 c0                	test   %eax,%eax
c00030e0:	75 dc                	jne    c00030be <memcpy+0x50>
c00030e2:	90                   	nop
c00030e3:	90                   	nop
c00030e4:	8b 5d fc             	mov    -0x4(%ebp),%ebx
c00030e7:	c9                   	leave  
c00030e8:	c3                   	ret    

c00030e9 <memcmp>:
c00030e9:	f3 0f 1e fb          	endbr32 
c00030ed:	55                   	push   %ebp
c00030ee:	89 e5                	mov    %esp,%ebp
c00030f0:	53                   	push   %ebx
c00030f1:	83 ec 14             	sub    $0x14,%esp
c00030f4:	e8 7b e5 ff ff       	call   c0001674 <__x86.get_pc_thunk.ax>
c00030f9:	05 07 4f 00 00       	add    $0x4f07,%eax
c00030fe:	83 7d 08 00          	cmpl   $0x0,0x8(%ebp)
c0003102:	74 06                	je     c000310a <memcmp+0x21>
c0003104:	83 7d 0c 00          	cmpl   $0x0,0xc(%ebp)
c0003108:	75 21                	jne    c000312b <memcmp+0x42>
c000310a:	8d 90 62 d5 ff ff    	lea    -0x2a9e(%eax),%edx
c0003110:	52                   	push   %edx
c0003111:	8d 90 b8 d5 ff ff    	lea    -0x2a48(%eax),%edx
c0003117:	52                   	push   %edx
c0003118:	6a 1e                	push   $0x1e
c000311a:	8d 90 38 d5 ff ff    	lea    -0x2ac8(%eax),%edx
c0003120:	52                   	push   %edx
c0003121:	89 c3                	mov    %eax,%ebx
c0003123:	e8 80 03 00 00       	call   c00034a8 <panic_spin>
c0003128:	83 c4 10             	add    $0x10,%esp
c000312b:	8b 45 08             	mov    0x8(%ebp),%eax
c000312e:	89 45 f4             	mov    %eax,-0xc(%ebp)
c0003131:	8b 45 0c             	mov    0xc(%ebp),%eax
c0003134:	89 45 f0             	mov    %eax,-0x10(%ebp)
c0003137:	90                   	nop
c0003138:	8b 45 10             	mov    0x10(%ebp),%eax
c000313b:	8d 50 ff             	lea    -0x1(%eax),%edx
c000313e:	89 55 10             	mov    %edx,0x10(%ebp)
c0003141:	85 c0                	test   %eax,%eax
c0003143:	74 16                	je     c000315b <memcmp+0x72>
c0003145:	8b 45 f4             	mov    -0xc(%ebp),%eax
c0003148:	8d 50 01             	lea    0x1(%eax),%edx
c000314b:	89 55 f4             	mov    %edx,-0xc(%ebp)
c000314e:	0f b6 10             	movzbl (%eax),%edx
c0003151:	8b 45 f0             	mov    -0x10(%ebp),%eax
c0003154:	0f b6 00             	movzbl (%eax),%eax
c0003157:	38 c2                	cmp    %al,%dl
c0003159:	74 dd                	je     c0003138 <memcmp+0x4f>
c000315b:	b8 00 00 00 00       	mov    $0x0,%eax
c0003160:	8b 5d fc             	mov    -0x4(%ebp),%ebx
c0003163:	c9                   	leave  
c0003164:	c3                   	ret    

c0003165 <strcpy>:
c0003165:	f3 0f 1e fb          	endbr32 
c0003169:	55                   	push   %ebp
c000316a:	89 e5                	mov    %esp,%ebp
c000316c:	53                   	push   %ebx
c000316d:	83 ec 14             	sub    $0x14,%esp
c0003170:	e8 ff e4 ff ff       	call   c0001674 <__x86.get_pc_thunk.ax>
c0003175:	05 8b 4e 00 00       	add    $0x4e8b,%eax
c000317a:	83 7d 08 00          	cmpl   $0x0,0x8(%ebp)
c000317e:	74 06                	je     c0003186 <strcpy+0x21>
c0003180:	83 7d 0c 00          	cmpl   $0x0,0xc(%ebp)
c0003184:	75 21                	jne    c00031a7 <strcpy+0x42>
c0003186:	8d 90 80 d5 ff ff    	lea    -0x2a80(%eax),%edx
c000318c:	52                   	push   %edx
c000318d:	8d 90 c0 d5 ff ff    	lea    -0x2a40(%eax),%edx
c0003193:	52                   	push   %edx
c0003194:	6a 2c                	push   $0x2c
c0003196:	8d 90 38 d5 ff ff    	lea    -0x2ac8(%eax),%edx
c000319c:	52                   	push   %edx
c000319d:	89 c3                	mov    %eax,%ebx
c000319f:	e8 04 03 00 00       	call   c00034a8 <panic_spin>
c00031a4:	83 c4 10             	add    $0x10,%esp
c00031a7:	8b 45 08             	mov    0x8(%ebp),%eax
c00031aa:	89 45 f4             	mov    %eax,-0xc(%ebp)
c00031ad:	90                   	nop
c00031ae:	8b 55 0c             	mov    0xc(%ebp),%edx
c00031b1:	8d 42 01             	lea    0x1(%edx),%eax
c00031b4:	89 45 0c             	mov    %eax,0xc(%ebp)
c00031b7:	8b 45 08             	mov    0x8(%ebp),%eax
c00031ba:	8d 48 01             	lea    0x1(%eax),%ecx
c00031bd:	89 4d 08             	mov    %ecx,0x8(%ebp)
c00031c0:	0f b6 12             	movzbl (%edx),%edx
c00031c3:	88 10                	mov    %dl,(%eax)
c00031c5:	0f b6 00             	movzbl (%eax),%eax
c00031c8:	84 c0                	test   %al,%al
c00031ca:	75 e2                	jne    c00031ae <strcpy+0x49>
c00031cc:	8b 45 f4             	mov    -0xc(%ebp),%eax
c00031cf:	8b 5d fc             	mov    -0x4(%ebp),%ebx
c00031d2:	c9                   	leave  
c00031d3:	c3                   	ret    

c00031d4 <strlen>:
c00031d4:	f3 0f 1e fb          	endbr32 
c00031d8:	55                   	push   %ebp
c00031d9:	89 e5                	mov    %esp,%ebp
c00031db:	53                   	push   %ebx
c00031dc:	83 ec 14             	sub    $0x14,%esp
c00031df:	e8 90 e4 ff ff       	call   c0001674 <__x86.get_pc_thunk.ax>
c00031e4:	05 1c 4e 00 00       	add    $0x4e1c,%eax
c00031e9:	83 7d 08 00          	cmpl   $0x0,0x8(%ebp)
c00031ed:	75 21                	jne    c0003210 <strlen+0x3c>
c00031ef:	8d 90 9b d5 ff ff    	lea    -0x2a65(%eax),%edx
c00031f5:	52                   	push   %edx
c00031f6:	8d 90 c8 d5 ff ff    	lea    -0x2a38(%eax),%edx
c00031fc:	52                   	push   %edx
c00031fd:	6a 36                	push   $0x36
c00031ff:	8d 90 38 d5 ff ff    	lea    -0x2ac8(%eax),%edx
c0003205:	52                   	push   %edx
c0003206:	89 c3                	mov    %eax,%ebx
c0003208:	e8 9b 02 00 00       	call   c00034a8 <panic_spin>
c000320d:	83 c4 10             	add    $0x10,%esp
c0003210:	c7 45 f4 00 00 00 00 	movl   $0x0,-0xc(%ebp)
c0003217:	eb 04                	jmp    c000321d <strlen+0x49>
c0003219:	83 45 f4 01          	addl   $0x1,-0xc(%ebp)
c000321d:	8b 45 08             	mov    0x8(%ebp),%eax
c0003220:	8d 50 01             	lea    0x1(%eax),%edx
c0003223:	89 55 08             	mov    %edx,0x8(%ebp)
c0003226:	0f b6 00             	movzbl (%eax),%eax
c0003229:	84 c0                	test   %al,%al
c000322b:	75 ec                	jne    c0003219 <strlen+0x45>
c000322d:	8b 45 f4             	mov    -0xc(%ebp),%eax
c0003230:	8b 5d fc             	mov    -0x4(%ebp),%ebx
c0003233:	c9                   	leave  
c0003234:	c3                   	ret    

c0003235 <strcmp>:
c0003235:	f3 0f 1e fb          	endbr32 
c0003239:	55                   	push   %ebp
c000323a:	89 e5                	mov    %esp,%ebp
c000323c:	53                   	push   %ebx
c000323d:	83 ec 04             	sub    $0x4,%esp
c0003240:	e8 2f e4 ff ff       	call   c0001674 <__x86.get_pc_thunk.ax>
c0003245:	05 bb 4d 00 00       	add    $0x4dbb,%eax
c000324a:	83 7d 08 00          	cmpl   $0x0,0x8(%ebp)
c000324e:	74 06                	je     c0003256 <strcmp+0x21>
c0003250:	83 7d 0c 00          	cmpl   $0x0,0xc(%ebp)
c0003254:	75 21                	jne    c0003277 <strcmp+0x42>
c0003256:	8d 90 62 d5 ff ff    	lea    -0x2a9e(%eax),%edx
c000325c:	52                   	push   %edx
c000325d:	8d 90 d0 d5 ff ff    	lea    -0x2a30(%eax),%edx
c0003263:	52                   	push   %edx
c0003264:	6a 44                	push   $0x44
c0003266:	8d 90 38 d5 ff ff    	lea    -0x2ac8(%eax),%edx
c000326c:	52                   	push   %edx
c000326d:	89 c3                	mov    %eax,%ebx
c000326f:	e8 34 02 00 00       	call   c00034a8 <panic_spin>
c0003274:	83 c4 10             	add    $0x10,%esp
c0003277:	eb 08                	jmp    c0003281 <strcmp+0x4c>
c0003279:	83 45 08 01          	addl   $0x1,0x8(%ebp)
c000327d:	83 45 0c 01          	addl   $0x1,0xc(%ebp)
c0003281:	8b 45 08             	mov    0x8(%ebp),%eax
c0003284:	0f b6 00             	movzbl (%eax),%eax
c0003287:	84 c0                	test   %al,%al
c0003289:	74 10                	je     c000329b <strcmp+0x66>
c000328b:	8b 45 08             	mov    0x8(%ebp),%eax
c000328e:	0f b6 10             	movzbl (%eax),%edx
c0003291:	8b 45 0c             	mov    0xc(%ebp),%eax
c0003294:	0f b6 00             	movzbl (%eax),%eax
c0003297:	38 c2                	cmp    %al,%dl
c0003299:	74 de                	je     c0003279 <strcmp+0x44>
c000329b:	8b 45 08             	mov    0x8(%ebp),%eax
c000329e:	0f b6 10             	movzbl (%eax),%edx
c00032a1:	8b 45 0c             	mov    0xc(%ebp),%eax
c00032a4:	0f b6 00             	movzbl (%eax),%eax
c00032a7:	38 c2                	cmp    %al,%dl
c00032a9:	7c 13                	jl     c00032be <strcmp+0x89>
c00032ab:	8b 45 08             	mov    0x8(%ebp),%eax
c00032ae:	0f b6 10             	movzbl (%eax),%edx
c00032b1:	8b 45 0c             	mov    0xc(%ebp),%eax
c00032b4:	0f b6 00             	movzbl (%eax),%eax
c00032b7:	38 c2                	cmp    %al,%dl
c00032b9:	0f 9f c0             	setg   %al
c00032bc:	eb 05                	jmp    c00032c3 <strcmp+0x8e>
c00032be:	b8 ff ff ff ff       	mov    $0xffffffff,%eax
c00032c3:	8b 5d fc             	mov    -0x4(%ebp),%ebx
c00032c6:	c9                   	leave  
c00032c7:	c3                   	ret    

c00032c8 <strchr>:
c00032c8:	f3 0f 1e fb          	endbr32 
c00032cc:	55                   	push   %ebp
c00032cd:	89 e5                	mov    %esp,%ebp
c00032cf:	53                   	push   %ebx
c00032d0:	83 ec 24             	sub    $0x24,%esp
c00032d3:	e8 9c e3 ff ff       	call   c0001674 <__x86.get_pc_thunk.ax>
c00032d8:	05 28 4d 00 00       	add    $0x4d28,%eax
c00032dd:	8b 55 0c             	mov    0xc(%ebp),%edx
c00032e0:	88 55 e4             	mov    %dl,-0x1c(%ebp)
c00032e3:	83 7d 08 00          	cmpl   $0x0,0x8(%ebp)
c00032e7:	75 35                	jne    c000331e <strchr+0x56>
c00032e9:	8d 90 9b d5 ff ff    	lea    -0x2a65(%eax),%edx
c00032ef:	52                   	push   %edx
c00032f0:	8d 90 d8 d5 ff ff    	lea    -0x2a28(%eax),%edx
c00032f6:	52                   	push   %edx
c00032f7:	6a 4f                	push   $0x4f
c00032f9:	8d 90 38 d5 ff ff    	lea    -0x2ac8(%eax),%edx
c00032ff:	52                   	push   %edx
c0003300:	89 c3                	mov    %eax,%ebx
c0003302:	e8 a1 01 00 00       	call   c00034a8 <panic_spin>
c0003307:	83 c4 10             	add    $0x10,%esp
c000330a:	eb 12                	jmp    c000331e <strchr+0x56>
c000330c:	0f b6 45 f7          	movzbl -0x9(%ebp),%eax
c0003310:	3a 45 e4             	cmp    -0x1c(%ebp),%al
c0003313:	75 05                	jne    c000331a <strchr+0x52>
c0003315:	8b 45 08             	mov    0x8(%ebp),%eax
c0003318:	eb 18                	jmp    c0003332 <strchr+0x6a>
c000331a:	83 45 08 01          	addl   $0x1,0x8(%ebp)
c000331e:	8b 45 08             	mov    0x8(%ebp),%eax
c0003321:	0f b6 00             	movzbl (%eax),%eax
c0003324:	88 45 f7             	mov    %al,-0x9(%ebp)
c0003327:	80 7d f7 00          	cmpb   $0x0,-0x9(%ebp)
c000332b:	75 df                	jne    c000330c <strchr+0x44>
c000332d:	b8 00 00 00 00       	mov    $0x0,%eax
c0003332:	8b 5d fc             	mov    -0x4(%ebp),%ebx
c0003335:	c9                   	leave  
c0003336:	c3                   	ret    

c0003337 <strrchr>:
c0003337:	f3 0f 1e fb          	endbr32 
c000333b:	55                   	push   %ebp
c000333c:	89 e5                	mov    %esp,%ebp
c000333e:	53                   	push   %ebx
c000333f:	83 ec 24             	sub    $0x24,%esp
c0003342:	e8 2d e3 ff ff       	call   c0001674 <__x86.get_pc_thunk.ax>
c0003347:	05 b9 4c 00 00       	add    $0x4cb9,%eax
c000334c:	8b 55 0c             	mov    0xc(%ebp),%edx
c000334f:	88 55 e4             	mov    %dl,-0x1c(%ebp)
c0003352:	83 7d 08 00          	cmpl   $0x0,0x8(%ebp)
c0003356:	75 21                	jne    c0003379 <strrchr+0x42>
c0003358:	8d 90 9b d5 ff ff    	lea    -0x2a65(%eax),%edx
c000335e:	52                   	push   %edx
c000335f:	8d 90 e0 d5 ff ff    	lea    -0x2a20(%eax),%edx
c0003365:	52                   	push   %edx
c0003366:	6a 61                	push   $0x61
c0003368:	8d 90 38 d5 ff ff    	lea    -0x2ac8(%eax),%edx
c000336e:	52                   	push   %edx
c000336f:	89 c3                	mov    %eax,%ebx
c0003371:	e8 32 01 00 00       	call   c00034a8 <panic_spin>
c0003376:	83 c4 10             	add    $0x10,%esp
c0003379:	c7 45 f4 00 00 00 00 	movl   $0x0,-0xc(%ebp)
c0003380:	eb 12                	jmp    c0003394 <strrchr+0x5d>
c0003382:	0f be 55 f3          	movsbl -0xd(%ebp),%edx
c0003386:	0f b6 45 e4          	movzbl -0x1c(%ebp),%eax
c000338a:	39 c2                	cmp    %eax,%edx
c000338c:	75 06                	jne    c0003394 <strrchr+0x5d>
c000338e:	8b 45 08             	mov    0x8(%ebp),%eax
c0003391:	89 45 f4             	mov    %eax,-0xc(%ebp)
c0003394:	8b 45 08             	mov    0x8(%ebp),%eax
c0003397:	0f b6 00             	movzbl (%eax),%eax
c000339a:	88 45 f3             	mov    %al,-0xd(%ebp)
c000339d:	80 7d f3 00          	cmpb   $0x0,-0xd(%ebp)
c00033a1:	75 df                	jne    c0003382 <strrchr+0x4b>
c00033a3:	8b 45 f4             	mov    -0xc(%ebp),%eax
c00033a6:	8b 5d fc             	mov    -0x4(%ebp),%ebx
c00033a9:	c9                   	leave  
c00033aa:	c3                   	ret    

c00033ab <strcat>:
c00033ab:	f3 0f 1e fb          	endbr32 
c00033af:	55                   	push   %ebp
c00033b0:	89 e5                	mov    %esp,%ebp
c00033b2:	53                   	push   %ebx
c00033b3:	83 ec 14             	sub    $0x14,%esp
c00033b6:	e8 b9 e2 ff ff       	call   c0001674 <__x86.get_pc_thunk.ax>
c00033bb:	05 45 4c 00 00       	add    $0x4c45,%eax
c00033c0:	83 7d 08 00          	cmpl   $0x0,0x8(%ebp)
c00033c4:	74 06                	je     c00033cc <strcat+0x21>
c00033c6:	83 7d 0c 00          	cmpl   $0x0,0xc(%ebp)
c00033ca:	75 21                	jne    c00033ed <strcat+0x42>
c00033cc:	8d 90 80 d5 ff ff    	lea    -0x2a80(%eax),%edx
c00033d2:	52                   	push   %edx
c00033d3:	8d 90 e8 d5 ff ff    	lea    -0x2a18(%eax),%edx
c00033d9:	52                   	push   %edx
c00033da:	6a 73                	push   $0x73
c00033dc:	8d 90 38 d5 ff ff    	lea    -0x2ac8(%eax),%edx
c00033e2:	52                   	push   %edx
c00033e3:	89 c3                	mov    %eax,%ebx
c00033e5:	e8 be 00 00 00       	call   c00034a8 <panic_spin>
c00033ea:	83 c4 10             	add    $0x10,%esp
c00033ed:	8b 45 08             	mov    0x8(%ebp),%eax
c00033f0:	89 45 f4             	mov    %eax,-0xc(%ebp)
c00033f3:	90                   	nop
c00033f4:	8b 45 08             	mov    0x8(%ebp),%eax
c00033f7:	8d 50 01             	lea    0x1(%eax),%edx
c00033fa:	89 55 08             	mov    %edx,0x8(%ebp)
c00033fd:	0f b6 00             	movzbl (%eax),%eax
c0003400:	84 c0                	test   %al,%al
c0003402:	75 f0                	jne    c00033f4 <strcat+0x49>
c0003404:	83 6d 08 01          	subl   $0x1,0x8(%ebp)
c0003408:	90                   	nop
c0003409:	8b 55 0c             	mov    0xc(%ebp),%edx
c000340c:	8d 42 01             	lea    0x1(%edx),%eax
c000340f:	89 45 0c             	mov    %eax,0xc(%ebp)
c0003412:	8b 45 08             	mov    0x8(%ebp),%eax
c0003415:	8d 48 01             	lea    0x1(%eax),%ecx
c0003418:	89 4d 08             	mov    %ecx,0x8(%ebp)
c000341b:	0f b6 12             	movzbl (%edx),%edx
c000341e:	88 10                	mov    %dl,(%eax)
c0003420:	0f b6 00             	movzbl (%eax),%eax
c0003423:	84 c0                	test   %al,%al
c0003425:	75 e2                	jne    c0003409 <strcat+0x5e>
c0003427:	8b 45 f4             	mov    -0xc(%ebp),%eax
c000342a:	8b 5d fc             	mov    -0x4(%ebp),%ebx
c000342d:	c9                   	leave  
c000342e:	c3                   	ret    

c000342f <strchrs>:
c000342f:	f3 0f 1e fb          	endbr32 
c0003433:	55                   	push   %ebp
c0003434:	89 e5                	mov    %esp,%ebp
c0003436:	53                   	push   %ebx
c0003437:	83 ec 24             	sub    $0x24,%esp
c000343a:	e8 35 e2 ff ff       	call   c0001674 <__x86.get_pc_thunk.ax>
c000343f:	05 c1 4b 00 00       	add    $0x4bc1,%eax
c0003444:	8b 55 0c             	mov    0xc(%ebp),%edx
c0003447:	88 55 e4             	mov    %dl,-0x1c(%ebp)
c000344a:	83 7d 08 00          	cmpl   $0x0,0x8(%ebp)
c000344e:	75 24                	jne    c0003474 <strchrs+0x45>
c0003450:	8d 90 9b d5 ff ff    	lea    -0x2a65(%eax),%edx
c0003456:	52                   	push   %edx
c0003457:	8d 90 f0 d5 ff ff    	lea    -0x2a10(%eax),%edx
c000345d:	52                   	push   %edx
c000345e:	68 83 00 00 00       	push   $0x83
c0003463:	8d 90 38 d5 ff ff    	lea    -0x2ac8(%eax),%edx
c0003469:	52                   	push   %edx
c000346a:	89 c3                	mov    %eax,%ebx
c000346c:	e8 37 00 00 00       	call   c00034a8 <panic_spin>
c0003471:	83 c4 10             	add    $0x10,%esp
c0003474:	c7 45 f4 00 00 00 00 	movl   $0x0,-0xc(%ebp)
c000347b:	eb 14                	jmp    c0003491 <strchrs+0x62>
c000347d:	0f be 55 f3          	movsbl -0xd(%ebp),%edx
c0003481:	0f b6 45 e4          	movzbl -0x1c(%ebp),%eax
c0003485:	39 c2                	cmp    %eax,%edx
c0003487:	75 04                	jne    c000348d <strchrs+0x5e>
c0003489:	83 45 f4 01          	addl   $0x1,-0xc(%ebp)
c000348d:	83 45 08 01          	addl   $0x1,0x8(%ebp)
c0003491:	8b 45 08             	mov    0x8(%ebp),%eax
c0003494:	0f b6 00             	movzbl (%eax),%eax
c0003497:	88 45 f3             	mov    %al,-0xd(%ebp)
c000349a:	80 7d f3 00          	cmpb   $0x0,-0xd(%ebp)
c000349e:	75 dd                	jne    c000347d <strchrs+0x4e>
c00034a0:	8b 45 f4             	mov    -0xc(%ebp),%eax
c00034a3:	8b 5d fc             	mov    -0x4(%ebp),%ebx
c00034a6:	c9                   	leave  
c00034a7:	c3                   	ret    

c00034a8 <panic_spin>:
c00034a8:	f3 0f 1e fb          	endbr32 
c00034ac:	55                   	push   %ebp
c00034ad:	89 e5                	mov    %esp,%ebp
c00034af:	53                   	push   %ebx
c00034b0:	83 ec 04             	sub    $0x4,%esp
c00034b3:	e8 c0 e1 ff ff       	call   c0001678 <__x86.get_pc_thunk.bx>
c00034b8:	81 c3 48 4b 00 00    	add    $0x4b48,%ebx
c00034be:	e8 48 e6 ff ff       	call   c0001b0b <intr_disable>
c00034c3:	83 ec 0c             	sub    $0xc,%esp
c00034c6:	8d 83 f8 d5 ff ff    	lea    -0x2a08(%ebx),%eax
c00034cc:	50                   	push   %eax
c00034cd:	e8 f1 ee ff ff       	call   c00023c3 <put_str>
c00034d2:	83 c4 10             	add    $0x10,%esp
c00034d5:	83 ec 0c             	sub    $0xc,%esp
c00034d8:	8d 83 0b d6 ff ff    	lea    -0x29f5(%ebx),%eax
c00034de:	50                   	push   %eax
c00034df:	e8 df ee ff ff       	call   c00023c3 <put_str>
c00034e4:	83 c4 10             	add    $0x10,%esp
c00034e7:	83 ec 0c             	sub    $0xc,%esp
c00034ea:	ff 75 08             	pushl  0x8(%ebp)
c00034ed:	e8 d1 ee ff ff       	call   c00023c3 <put_str>
c00034f2:	83 c4 10             	add    $0x10,%esp
c00034f5:	83 ec 0c             	sub    $0xc,%esp
c00034f8:	6a 0a                	push   $0xa
c00034fa:	e8 e2 ee ff ff       	call   c00023e1 <put_char>
c00034ff:	83 c4 10             	add    $0x10,%esp
c0003502:	83 ec 0c             	sub    $0xc,%esp
c0003505:	8d 83 16 d6 ff ff    	lea    -0x29ea(%ebx),%eax
c000350b:	50                   	push   %eax
c000350c:	e8 b2 ee ff ff       	call   c00023c3 <put_str>
c0003511:	83 c4 10             	add    $0x10,%esp
c0003514:	8b 45 0c             	mov    0xc(%ebp),%eax
c0003517:	83 ec 0c             	sub    $0xc,%esp
c000351a:	50                   	push   %eax
c000351b:	e8 40 ee ff ff       	call   c0002360 <put_int>
c0003520:	83 c4 10             	add    $0x10,%esp
c0003523:	83 ec 0c             	sub    $0xc,%esp
c0003526:	6a 0a                	push   $0xa
c0003528:	e8 b4 ee ff ff       	call   c00023e1 <put_char>
c000352d:	83 c4 10             	add    $0x10,%esp
c0003530:	83 ec 0c             	sub    $0xc,%esp
c0003533:	8d 83 1d d6 ff ff    	lea    -0x29e3(%ebx),%eax
c0003539:	50                   	push   %eax
c000353a:	e8 84 ee ff ff       	call   c00023c3 <put_str>
c000353f:	83 c4 10             	add    $0x10,%esp
c0003542:	83 ec 0c             	sub    $0xc,%esp
c0003545:	ff 75 10             	pushl  0x10(%ebp)
c0003548:	e8 76 ee ff ff       	call   c00023c3 <put_str>
c000354d:	83 c4 10             	add    $0x10,%esp
c0003550:	83 ec 0c             	sub    $0xc,%esp
c0003553:	6a 0a                	push   $0xa
c0003555:	e8 87 ee ff ff       	call   c00023e1 <put_char>
c000355a:	83 c4 10             	add    $0x10,%esp
c000355d:	83 ec 0c             	sub    $0xc,%esp
c0003560:	8d 83 28 d6 ff ff    	lea    -0x29d8(%ebx),%eax
c0003566:	50                   	push   %eax
c0003567:	e8 57 ee ff ff       	call   c00023c3 <put_str>
c000356c:	83 c4 10             	add    $0x10,%esp
c000356f:	83 ec 0c             	sub    $0xc,%esp
c0003572:	ff 75 14             	pushl  0x14(%ebp)
c0003575:	e8 49 ee ff ff       	call   c00023c3 <put_str>
c000357a:	83 c4 10             	add    $0x10,%esp
c000357d:	83 ec 0c             	sub    $0xc,%esp
c0003580:	6a 0a                	push   $0xa
c0003582:	e8 5a ee ff ff       	call   c00023e1 <put_char>
c0003587:	83 c4 10             	add    $0x10,%esp
c000358a:	eb fe                	jmp    c000358a <panic_spin+0xe2>

c000358c <running_thread>:
c000358c:	f3 0f 1e fb          	endbr32 
c0003590:	55                   	push   %ebp
c0003591:	89 e5                	mov    %esp,%ebp
c0003593:	83 ec 10             	sub    $0x10,%esp
c0003596:	e8 d9 e0 ff ff       	call   c0001674 <__x86.get_pc_thunk.ax>
c000359b:	05 65 4a 00 00       	add    $0x4a65,%eax
c00035a0:	89 e0                	mov    %esp,%eax
c00035a2:	89 45 fc             	mov    %eax,-0x4(%ebp)
c00035a5:	8b 45 fc             	mov    -0x4(%ebp),%eax
c00035a8:	25 00 f0 ff ff       	and    $0xfffff000,%eax
c00035ad:	c9                   	leave  
c00035ae:	c3                   	ret    

c00035af <kernel_thread>:
c00035af:	f3 0f 1e fb          	endbr32 
c00035b3:	55                   	push   %ebp
c00035b4:	89 e5                	mov    %esp,%ebp
c00035b6:	53                   	push   %ebx
c00035b7:	83 ec 04             	sub    $0x4,%esp
c00035ba:	e8 b5 e0 ff ff       	call   c0001674 <__x86.get_pc_thunk.ax>
c00035bf:	05 41 4a 00 00       	add    $0x4a41,%eax
c00035c4:	89 c3                	mov    %eax,%ebx
c00035c6:	e8 09 e5 ff ff       	call   c0001ad4 <intr_enable>
c00035cb:	83 ec 0c             	sub    $0xc,%esp
c00035ce:	ff 75 0c             	pushl  0xc(%ebp)
c00035d1:	8b 45 08             	mov    0x8(%ebp),%eax
c00035d4:	ff d0                	call   *%eax
c00035d6:	83 c4 10             	add    $0x10,%esp
c00035d9:	90                   	nop
c00035da:	8b 5d fc             	mov    -0x4(%ebp),%ebx
c00035dd:	c9                   	leave  
c00035de:	c3                   	ret    

c00035df <thread_create>:
c00035df:	f3 0f 1e fb          	endbr32 
c00035e3:	55                   	push   %ebp
c00035e4:	89 e5                	mov    %esp,%ebp
c00035e6:	83 ec 10             	sub    $0x10,%esp
c00035e9:	e8 1f 06 00 00       	call   c0003c0d <__x86.get_pc_thunk.dx>
c00035ee:	81 c2 12 4a 00 00    	add    $0x4a12,%edx
c00035f4:	8b 45 08             	mov    0x8(%ebp),%eax
c00035f7:	8b 00                	mov    (%eax),%eax
c00035f9:	8d 88 d0 fe ff ff    	lea    -0x130(%eax),%ecx
c00035ff:	8b 45 08             	mov    0x8(%ebp),%eax
c0003602:	89 08                	mov    %ecx,(%eax)
c0003604:	8b 45 08             	mov    0x8(%ebp),%eax
c0003607:	8b 00                	mov    (%eax),%eax
c0003609:	8d 48 80             	lea    -0x80(%eax),%ecx
c000360c:	8b 45 08             	mov    0x8(%ebp),%eax
c000360f:	89 08                	mov    %ecx,(%eax)
c0003611:	8b 45 08             	mov    0x8(%ebp),%eax
c0003614:	8b 00                	mov    (%eax),%eax
c0003616:	89 45 fc             	mov    %eax,-0x4(%ebp)
c0003619:	8b 45 fc             	mov    -0x4(%ebp),%eax
c000361c:	8d 92 af b5 ff ff    	lea    -0x4a51(%edx),%edx
c0003622:	89 50 10             	mov    %edx,0x10(%eax)
c0003625:	8b 45 fc             	mov    -0x4(%ebp),%eax
c0003628:	8b 55 0c             	mov    0xc(%ebp),%edx
c000362b:	89 50 18             	mov    %edx,0x18(%eax)
c000362e:	8b 45 fc             	mov    -0x4(%ebp),%eax
c0003631:	8b 55 10             	mov    0x10(%ebp),%edx
c0003634:	89 50 1c             	mov    %edx,0x1c(%eax)
c0003637:	8b 45 fc             	mov    -0x4(%ebp),%eax
c000363a:	c7 40 08 00 00 00 00 	movl   $0x0,0x8(%eax)
c0003641:	8b 45 fc             	mov    -0x4(%ebp),%eax
c0003644:	8b 50 08             	mov    0x8(%eax),%edx
c0003647:	8b 45 fc             	mov    -0x4(%ebp),%eax
c000364a:	89 50 0c             	mov    %edx,0xc(%eax)
c000364d:	8b 45 fc             	mov    -0x4(%ebp),%eax
c0003650:	8b 50 0c             	mov    0xc(%eax),%edx
c0003653:	8b 45 fc             	mov    -0x4(%ebp),%eax
c0003656:	89 50 04             	mov    %edx,0x4(%eax)
c0003659:	8b 45 fc             	mov    -0x4(%ebp),%eax
c000365c:	8b 50 04             	mov    0x4(%eax),%edx
c000365f:	8b 45 fc             	mov    -0x4(%ebp),%eax
c0003662:	89 10                	mov    %edx,(%eax)
c0003664:	90                   	nop
c0003665:	c9                   	leave  
c0003666:	c3                   	ret    

c0003667 <init_thread>:
c0003667:	f3 0f 1e fb          	endbr32 
c000366b:	55                   	push   %ebp
c000366c:	89 e5                	mov    %esp,%ebp
c000366e:	53                   	push   %ebx
c000366f:	83 ec 04             	sub    $0x4,%esp
c0003672:	e8 01 e0 ff ff       	call   c0001678 <__x86.get_pc_thunk.bx>
c0003677:	81 c3 89 49 00 00    	add    $0x4989,%ebx
c000367d:	83 ec 04             	sub    $0x4,%esp
c0003680:	6a 44                	push   $0x44
c0003682:	6a 00                	push   $0x0
c0003684:	ff 75 08             	pushl  0x8(%ebp)
c0003687:	e8 75 f9 ff ff       	call   c0003001 <memset>
c000368c:	83 c4 10             	add    $0x10,%esp
c000368f:	8b 45 08             	mov    0x8(%ebp),%eax
c0003692:	83 c0 08             	add    $0x8,%eax
c0003695:	83 ec 08             	sub    $0x8,%esp
c0003698:	ff 75 0c             	pushl  0xc(%ebp)
c000369b:	50                   	push   %eax
c000369c:	e8 c4 fa ff ff       	call   c0003165 <strcpy>
c00036a1:	83 c4 10             	add    $0x10,%esp
c00036a4:	c7 c0 ec 83 00 c0    	mov    $0xc00083ec,%eax
c00036aa:	8b 00                	mov    (%eax),%eax
c00036ac:	39 45 08             	cmp    %eax,0x8(%ebp)
c00036af:	75 0c                	jne    c00036bd <init_thread+0x56>
c00036b1:	8b 45 08             	mov    0x8(%ebp),%eax
c00036b4:	c7 40 04 00 00 00 00 	movl   $0x0,0x4(%eax)
c00036bb:	eb 0a                	jmp    c00036c7 <init_thread+0x60>
c00036bd:	8b 45 08             	mov    0x8(%ebp),%eax
c00036c0:	c7 40 04 01 00 00 00 	movl   $0x1,0x4(%eax)
c00036c7:	8b 45 08             	mov    0x8(%ebp),%eax
c00036ca:	05 00 10 00 00       	add    $0x1000,%eax
c00036cf:	89 c2                	mov    %eax,%edx
c00036d1:	8b 45 08             	mov    0x8(%ebp),%eax
c00036d4:	89 10                	mov    %edx,(%eax)
c00036d6:	8b 45 10             	mov    0x10(%ebp),%eax
c00036d9:	89 c2                	mov    %eax,%edx
c00036db:	8b 45 08             	mov    0x8(%ebp),%eax
c00036de:	88 50 18             	mov    %dl,0x18(%eax)
c00036e1:	8b 45 10             	mov    0x10(%ebp),%eax
c00036e4:	89 c2                	mov    %eax,%edx
c00036e6:	8b 45 08             	mov    0x8(%ebp),%eax
c00036e9:	88 50 19             	mov    %dl,0x19(%eax)
c00036ec:	8b 45 08             	mov    0x8(%ebp),%eax
c00036ef:	c7 40 1c 00 00 00 00 	movl   $0x0,0x1c(%eax)
c00036f6:	8b 45 08             	mov    0x8(%ebp),%eax
c00036f9:	c7 40 30 00 00 00 00 	movl   $0x0,0x30(%eax)
c0003700:	8b 45 08             	mov    0x8(%ebp),%eax
c0003703:	c7 40 40 16 09 87 19 	movl   $0x19870916,0x40(%eax)
c000370a:	90                   	nop
c000370b:	8b 5d fc             	mov    -0x4(%ebp),%ebx
c000370e:	c9                   	leave  
c000370f:	c3                   	ret    

c0003710 <thread_start>:
c0003710:	f3 0f 1e fb          	endbr32 
c0003714:	55                   	push   %ebp
c0003715:	89 e5                	mov    %esp,%ebp
c0003717:	53                   	push   %ebx
c0003718:	83 ec 14             	sub    $0x14,%esp
c000371b:	e8 58 df ff ff       	call   c0001678 <__x86.get_pc_thunk.bx>
c0003720:	81 c3 e0 48 00 00    	add    $0x48e0,%ebx
c0003726:	83 ec 0c             	sub    $0xc,%esp
c0003729:	6a 01                	push   $0x1
c000372b:	e8 1a f6 ff ff       	call   c0002d4a <get_kernel_pages>
c0003730:	83 c4 10             	add    $0x10,%esp
c0003733:	89 45 f4             	mov    %eax,-0xc(%ebp)
c0003736:	83 ec 04             	sub    $0x4,%esp
c0003739:	ff 75 0c             	pushl  0xc(%ebp)
c000373c:	ff 75 08             	pushl  0x8(%ebp)
c000373f:	ff 75 f4             	pushl  -0xc(%ebp)
c0003742:	e8 20 ff ff ff       	call   c0003667 <init_thread>
c0003747:	83 c4 10             	add    $0x10,%esp
c000374a:	83 ec 04             	sub    $0x4,%esp
c000374d:	ff 75 14             	pushl  0x14(%ebp)
c0003750:	ff 75 10             	pushl  0x10(%ebp)
c0003753:	ff 75 f4             	pushl  -0xc(%ebp)
c0003756:	e8 84 fe ff ff       	call   c00035df <thread_create>
c000375b:	83 c4 10             	add    $0x10,%esp
c000375e:	8b 45 f4             	mov    -0xc(%ebp),%eax
c0003761:	83 c0 20             	add    $0x20,%eax
c0003764:	83 ec 08             	sub    $0x8,%esp
c0003767:	50                   	push   %eax
c0003768:	c7 c0 cc 83 00 c0    	mov    $0xc00083cc,%eax
c000376e:	50                   	push   %eax
c000376f:	e8 2a 06 00 00       	call   c0003d9e <list_find>
c0003774:	83 c4 10             	add    $0x10,%esp
c0003777:	85 c0                	test   %eax,%eax
c0003779:	74 1f                	je     c000379a <thread_start+0x8a>
c000377b:	8d 83 34 d6 ff ff    	lea    -0x29cc(%ebx),%eax
c0003781:	50                   	push   %eax
c0003782:	8d 83 b4 d8 ff ff    	lea    -0x274c(%ebx),%eax
c0003788:	50                   	push   %eax
c0003789:	6a 4d                	push   $0x4d
c000378b:	8d 83 69 d6 ff ff    	lea    -0x2997(%ebx),%eax
c0003791:	50                   	push   %eax
c0003792:	e8 11 fd ff ff       	call   c00034a8 <panic_spin>
c0003797:	83 c4 10             	add    $0x10,%esp
c000379a:	8b 45 f4             	mov    -0xc(%ebp),%eax
c000379d:	83 c0 20             	add    $0x20,%eax
c00037a0:	83 ec 08             	sub    $0x8,%esp
c00037a3:	50                   	push   %eax
c00037a4:	c7 c0 cc 83 00 c0    	mov    $0xc00083cc,%eax
c00037aa:	50                   	push   %eax
c00037ab:	e8 45 05 00 00       	call   c0003cf5 <list_append>
c00037b0:	83 c4 10             	add    $0x10,%esp
c00037b3:	8b 45 f4             	mov    -0xc(%ebp),%eax
c00037b6:	83 c0 28             	add    $0x28,%eax
c00037b9:	83 ec 08             	sub    $0x8,%esp
c00037bc:	50                   	push   %eax
c00037bd:	c7 c0 dc 83 00 c0    	mov    $0xc00083dc,%eax
c00037c3:	50                   	push   %eax
c00037c4:	e8 d5 05 00 00       	call   c0003d9e <list_find>
c00037c9:	83 c4 10             	add    $0x10,%esp
c00037cc:	85 c0                	test   %eax,%eax
c00037ce:	74 1f                	je     c00037ef <thread_start+0xdf>
c00037d0:	8d 83 80 d6 ff ff    	lea    -0x2980(%ebx),%eax
c00037d6:	50                   	push   %eax
c00037d7:	8d 83 b4 d8 ff ff    	lea    -0x274c(%ebx),%eax
c00037dd:	50                   	push   %eax
c00037de:	6a 52                	push   $0x52
c00037e0:	8d 83 69 d6 ff ff    	lea    -0x2997(%ebx),%eax
c00037e6:	50                   	push   %eax
c00037e7:	e8 bc fc ff ff       	call   c00034a8 <panic_spin>
c00037ec:	83 c4 10             	add    $0x10,%esp
c00037ef:	8b 45 f4             	mov    -0xc(%ebp),%eax
c00037f2:	83 c0 28             	add    $0x28,%eax
c00037f5:	83 ec 08             	sub    $0x8,%esp
c00037f8:	50                   	push   %eax
c00037f9:	c7 c0 dc 83 00 c0    	mov    $0xc00083dc,%eax
c00037ff:	50                   	push   %eax
c0003800:	e8 f0 04 00 00       	call   c0003cf5 <list_append>
c0003805:	83 c4 10             	add    $0x10,%esp
c0003808:	8b 45 f4             	mov    -0xc(%ebp),%eax
c000380b:	8b 5d fc             	mov    -0x4(%ebp),%ebx
c000380e:	c9                   	leave  
c000380f:	c3                   	ret    

c0003810 <make_main_thread>:
c0003810:	f3 0f 1e fb          	endbr32 
c0003814:	55                   	push   %ebp
c0003815:	89 e5                	mov    %esp,%ebp
c0003817:	53                   	push   %ebx
c0003818:	83 ec 04             	sub    $0x4,%esp
c000381b:	e8 58 de ff ff       	call   c0001678 <__x86.get_pc_thunk.bx>
c0003820:	81 c3 e0 47 00 00    	add    $0x47e0,%ebx
c0003826:	e8 61 fd ff ff       	call   c000358c <running_thread>
c000382b:	c7 c2 ec 83 00 c0    	mov    $0xc00083ec,%edx
c0003831:	89 02                	mov    %eax,(%edx)
c0003833:	c7 c0 ec 83 00 c0    	mov    $0xc00083ec,%eax
c0003839:	8b 00                	mov    (%eax),%eax
c000383b:	83 ec 04             	sub    $0x4,%esp
c000383e:	6a 1f                	push   $0x1f
c0003840:	8d 93 b4 d6 ff ff    	lea    -0x294c(%ebx),%edx
c0003846:	52                   	push   %edx
c0003847:	50                   	push   %eax
c0003848:	e8 1a fe ff ff       	call   c0003667 <init_thread>
c000384d:	83 c4 10             	add    $0x10,%esp
c0003850:	c7 c0 ec 83 00 c0    	mov    $0xc00083ec,%eax
c0003856:	8b 00                	mov    (%eax),%eax
c0003858:	83 c0 28             	add    $0x28,%eax
c000385b:	83 ec 08             	sub    $0x8,%esp
c000385e:	50                   	push   %eax
c000385f:	c7 c0 dc 83 00 c0    	mov    $0xc00083dc,%eax
c0003865:	50                   	push   %eax
c0003866:	e8 33 05 00 00       	call   c0003d9e <list_find>
c000386b:	83 c4 10             	add    $0x10,%esp
c000386e:	85 c0                	test   %eax,%eax
c0003870:	74 1f                	je     c0003891 <make_main_thread+0x81>
c0003872:	8d 83 bc d6 ff ff    	lea    -0x2944(%ebx),%eax
c0003878:	50                   	push   %eax
c0003879:	8d 83 c4 d8 ff ff    	lea    -0x273c(%ebx),%eax
c000387f:	50                   	push   %eax
c0003880:	6a 62                	push   $0x62
c0003882:	8d 83 69 d6 ff ff    	lea    -0x2997(%ebx),%eax
c0003888:	50                   	push   %eax
c0003889:	e8 1a fc ff ff       	call   c00034a8 <panic_spin>
c000388e:	83 c4 10             	add    $0x10,%esp
c0003891:	c7 c0 ec 83 00 c0    	mov    $0xc00083ec,%eax
c0003897:	8b 00                	mov    (%eax),%eax
c0003899:	83 c0 28             	add    $0x28,%eax
c000389c:	83 ec 08             	sub    $0x8,%esp
c000389f:	50                   	push   %eax
c00038a0:	c7 c0 dc 83 00 c0    	mov    $0xc00083dc,%eax
c00038a6:	50                   	push   %eax
c00038a7:	e8 49 04 00 00       	call   c0003cf5 <list_append>
c00038ac:	83 c4 10             	add    $0x10,%esp
c00038af:	90                   	nop
c00038b0:	8b 5d fc             	mov    -0x4(%ebp),%ebx
c00038b3:	c9                   	leave  
c00038b4:	c3                   	ret    

c00038b5 <schedule>:
c00038b5:	f3 0f 1e fb          	endbr32 
c00038b9:	55                   	push   %ebp
c00038ba:	89 e5                	mov    %esp,%ebp
c00038bc:	53                   	push   %ebx
c00038bd:	83 ec 14             	sub    $0x14,%esp
c00038c0:	e8 b3 dd ff ff       	call   c0001678 <__x86.get_pc_thunk.bx>
c00038c5:	81 c3 3b 47 00 00    	add    $0x473b,%ebx
c00038cb:	e8 9e e2 ff ff       	call   c0001b6e <intr_get_status>
c00038d0:	85 c0                	test   %eax,%eax
c00038d2:	74 1f                	je     c00038f3 <schedule+0x3e>
c00038d4:	8d 83 f5 d6 ff ff    	lea    -0x290b(%ebx),%eax
c00038da:	50                   	push   %eax
c00038db:	8d 83 d8 d8 ff ff    	lea    -0x2728(%ebx),%eax
c00038e1:	50                   	push   %eax
c00038e2:	6a 69                	push   $0x69
c00038e4:	8d 83 69 d6 ff ff    	lea    -0x2997(%ebx),%eax
c00038ea:	50                   	push   %eax
c00038eb:	e8 b8 fb ff ff       	call   c00034a8 <panic_spin>
c00038f0:	83 c4 10             	add    $0x10,%esp
c00038f3:	e8 94 fc ff ff       	call   c000358c <running_thread>
c00038f8:	89 45 f4             	mov    %eax,-0xc(%ebp)
c00038fb:	8b 45 f4             	mov    -0xc(%ebp),%eax
c00038fe:	8b 40 04             	mov    0x4(%eax),%eax
c0003901:	85 c0                	test   %eax,%eax
c0003903:	75 6c                	jne    c0003971 <schedule+0xbc>
c0003905:	8b 45 f4             	mov    -0xc(%ebp),%eax
c0003908:	83 c0 20             	add    $0x20,%eax
c000390b:	83 ec 08             	sub    $0x8,%esp
c000390e:	50                   	push   %eax
c000390f:	c7 c0 cc 83 00 c0    	mov    $0xc00083cc,%eax
c0003915:	50                   	push   %eax
c0003916:	e8 83 04 00 00       	call   c0003d9e <list_find>
c000391b:	83 c4 10             	add    $0x10,%esp
c000391e:	85 c0                	test   %eax,%eax
c0003920:	74 1f                	je     c0003941 <schedule+0x8c>
c0003922:	8d 83 14 d7 ff ff    	lea    -0x28ec(%ebx),%eax
c0003928:	50                   	push   %eax
c0003929:	8d 83 d8 d8 ff ff    	lea    -0x2728(%ebx),%eax
c000392f:	50                   	push   %eax
c0003930:	6a 6d                	push   $0x6d
c0003932:	8d 83 69 d6 ff ff    	lea    -0x2997(%ebx),%eax
c0003938:	50                   	push   %eax
c0003939:	e8 6a fb ff ff       	call   c00034a8 <panic_spin>
c000393e:	83 c4 10             	add    $0x10,%esp
c0003941:	8b 45 f4             	mov    -0xc(%ebp),%eax
c0003944:	83 c0 20             	add    $0x20,%eax
c0003947:	83 ec 08             	sub    $0x8,%esp
c000394a:	50                   	push   %eax
c000394b:	c7 c0 cc 83 00 c0    	mov    $0xc00083cc,%eax
c0003951:	50                   	push   %eax
c0003952:	e8 9e 03 00 00       	call   c0003cf5 <list_append>
c0003957:	83 c4 10             	add    $0x10,%esp
c000395a:	8b 45 f4             	mov    -0xc(%ebp),%eax
c000395d:	0f b6 50 18          	movzbl 0x18(%eax),%edx
c0003961:	8b 45 f4             	mov    -0xc(%ebp),%eax
c0003964:	88 50 19             	mov    %dl,0x19(%eax)
c0003967:	8b 45 f4             	mov    -0xc(%ebp),%eax
c000396a:	c7 40 04 01 00 00 00 	movl   $0x1,0x4(%eax)
c0003971:	83 ec 0c             	sub    $0xc,%esp
c0003974:	c7 c0 cc 83 00 c0    	mov    $0xc00083cc,%eax
c000397a:	50                   	push   %eax
c000397b:	e8 15 05 00 00       	call   c0003e95 <list_empty>
c0003980:	83 c4 10             	add    $0x10,%esp
c0003983:	85 c0                	test   %eax,%eax
c0003985:	74 1f                	je     c00039a6 <schedule+0xf1>
c0003987:	8d 83 48 d7 ff ff    	lea    -0x28b8(%ebx),%eax
c000398d:	50                   	push   %eax
c000398e:	8d 83 d8 d8 ff ff    	lea    -0x2728(%ebx),%eax
c0003994:	50                   	push   %eax
c0003995:	6a 76                	push   $0x76
c0003997:	8d 83 69 d6 ff ff    	lea    -0x2997(%ebx),%eax
c000399d:	50                   	push   %eax
c000399e:	e8 05 fb ff ff       	call   c00034a8 <panic_spin>
c00039a3:	83 c4 10             	add    $0x10,%esp
c00039a6:	c7 83 20 03 00 00 00 	movl   $0x0,0x320(%ebx)
c00039ad:	00 00 00 
c00039b0:	83 ec 0c             	sub    $0xc,%esp
c00039b3:	c7 c0 cc 83 00 c0    	mov    $0xc00083cc,%eax
c00039b9:	50                   	push   %eax
c00039ba:	e8 af 03 00 00       	call   c0003d6e <list_pop>
c00039bf:	83 c4 10             	add    $0x10,%esp
c00039c2:	89 83 20 03 00 00    	mov    %eax,0x320(%ebx)
c00039c8:	8b 83 20 03 00 00    	mov    0x320(%ebx),%eax
c00039ce:	83 e8 20             	sub    $0x20,%eax
c00039d1:	89 45 f0             	mov    %eax,-0x10(%ebp)
c00039d4:	8b 45 f0             	mov    -0x10(%ebp),%eax
c00039d7:	c7 40 04 00 00 00 00 	movl   $0x0,0x4(%eax)
c00039de:	83 ec 0c             	sub    $0xc,%esp
c00039e1:	ff 75 f0             	pushl  -0x10(%ebp)
c00039e4:	e8 71 12 00 00       	call   c0004c5a <process_activate>
c00039e9:	83 c4 10             	add    $0x10,%esp
c00039ec:	83 ec 08             	sub    $0x8,%esp
c00039ef:	ff 75 f0             	pushl  -0x10(%ebp)
c00039f2:	ff 75 f4             	pushl  -0xc(%ebp)
c00039f5:	e8 26 02 00 00       	call   c0003c20 <switch_to>
c00039fa:	83 c4 10             	add    $0x10,%esp
c00039fd:	90                   	nop
c00039fe:	8b 5d fc             	mov    -0x4(%ebp),%ebx
c0003a01:	c9                   	leave  
c0003a02:	c3                   	ret    

c0003a03 <thread_block>:
c0003a03:	f3 0f 1e fb          	endbr32 
c0003a07:	55                   	push   %ebp
c0003a08:	89 e5                	mov    %esp,%ebp
c0003a0a:	53                   	push   %ebx
c0003a0b:	83 ec 14             	sub    $0x14,%esp
c0003a0e:	e8 65 dc ff ff       	call   c0001678 <__x86.get_pc_thunk.bx>
c0003a13:	81 c3 ed 45 00 00    	add    $0x45ed,%ebx
c0003a19:	83 7d 08 02          	cmpl   $0x2,0x8(%ebp)
c0003a1d:	74 2e                	je     c0003a4d <thread_block+0x4a>
c0003a1f:	83 7d 08 03          	cmpl   $0x3,0x8(%ebp)
c0003a23:	74 28                	je     c0003a4d <thread_block+0x4a>
c0003a25:	83 7d 08 04          	cmpl   $0x4,0x8(%ebp)
c0003a29:	74 22                	je     c0003a4d <thread_block+0x4a>
c0003a2b:	8d 83 68 d7 ff ff    	lea    -0x2898(%ebx),%eax
c0003a31:	50                   	push   %eax
c0003a32:	8d 83 e4 d8 ff ff    	lea    -0x271c(%ebx),%eax
c0003a38:	50                   	push   %eax
c0003a39:	68 86 00 00 00       	push   $0x86
c0003a3e:	8d 83 69 d6 ff ff    	lea    -0x2997(%ebx),%eax
c0003a44:	50                   	push   %eax
c0003a45:	e8 5e fa ff ff       	call   c00034a8 <panic_spin>
c0003a4a:	83 c4 10             	add    $0x10,%esp
c0003a4d:	e8 b9 e0 ff ff       	call   c0001b0b <intr_disable>
c0003a52:	89 45 f4             	mov    %eax,-0xc(%ebp)
c0003a55:	e8 32 fb ff ff       	call   c000358c <running_thread>
c0003a5a:	89 45 f0             	mov    %eax,-0x10(%ebp)
c0003a5d:	8b 45 f0             	mov    -0x10(%ebp),%eax
c0003a60:	8b 55 08             	mov    0x8(%ebp),%edx
c0003a63:	89 50 04             	mov    %edx,0x4(%eax)
c0003a66:	e8 4a fe ff ff       	call   c00038b5 <schedule>
c0003a6b:	83 ec 0c             	sub    $0xc,%esp
c0003a6e:	ff 75 f4             	pushl  -0xc(%ebp)
c0003a71:	e8 cc e0 ff ff       	call   c0001b42 <intr_set_status>
c0003a76:	83 c4 10             	add    $0x10,%esp
c0003a79:	90                   	nop
c0003a7a:	8b 5d fc             	mov    -0x4(%ebp),%ebx
c0003a7d:	c9                   	leave  
c0003a7e:	c3                   	ret    

c0003a7f <thread_unblock>:
c0003a7f:	f3 0f 1e fb          	endbr32 
c0003a83:	55                   	push   %ebp
c0003a84:	89 e5                	mov    %esp,%ebp
c0003a86:	53                   	push   %ebx
c0003a87:	83 ec 14             	sub    $0x14,%esp
c0003a8a:	e8 e9 db ff ff       	call   c0001678 <__x86.get_pc_thunk.bx>
c0003a8f:	81 c3 71 45 00 00    	add    $0x4571,%ebx
c0003a95:	e8 71 e0 ff ff       	call   c0001b0b <intr_disable>
c0003a9a:	89 45 f4             	mov    %eax,-0xc(%ebp)
c0003a9d:	8b 45 08             	mov    0x8(%ebp),%eax
c0003aa0:	8b 40 04             	mov    0x4(%eax),%eax
c0003aa3:	83 f8 02             	cmp    $0x2,%eax
c0003aa6:	74 38                	je     c0003ae0 <thread_unblock+0x61>
c0003aa8:	8b 45 08             	mov    0x8(%ebp),%eax
c0003aab:	8b 40 04             	mov    0x4(%eax),%eax
c0003aae:	83 f8 03             	cmp    $0x3,%eax
c0003ab1:	74 2d                	je     c0003ae0 <thread_unblock+0x61>
c0003ab3:	8b 45 08             	mov    0x8(%ebp),%eax
c0003ab6:	8b 40 04             	mov    0x4(%eax),%eax
c0003ab9:	83 f8 04             	cmp    $0x4,%eax
c0003abc:	74 22                	je     c0003ae0 <thread_unblock+0x61>
c0003abe:	8d 83 b8 d7 ff ff    	lea    -0x2848(%ebx),%eax
c0003ac4:	50                   	push   %eax
c0003ac5:	8d 83 f4 d8 ff ff    	lea    -0x270c(%ebx),%eax
c0003acb:	50                   	push   %eax
c0003acc:	68 92 00 00 00       	push   $0x92
c0003ad1:	8d 83 69 d6 ff ff    	lea    -0x2997(%ebx),%eax
c0003ad7:	50                   	push   %eax
c0003ad8:	e8 cb f9 ff ff       	call   c00034a8 <panic_spin>
c0003add:	83 c4 10             	add    $0x10,%esp
c0003ae0:	8b 45 08             	mov    0x8(%ebp),%eax
c0003ae3:	8b 40 04             	mov    0x4(%eax),%eax
c0003ae6:	83 f8 01             	cmp    $0x1,%eax
c0003ae9:	0f 84 a1 00 00 00    	je     c0003b90 <thread_unblock+0x111>
c0003aef:	8b 45 08             	mov    0x8(%ebp),%eax
c0003af2:	83 c0 20             	add    $0x20,%eax
c0003af5:	83 ec 08             	sub    $0x8,%esp
c0003af8:	50                   	push   %eax
c0003af9:	c7 c0 cc 83 00 c0    	mov    $0xc00083cc,%eax
c0003aff:	50                   	push   %eax
c0003b00:	e8 99 02 00 00       	call   c0003d9e <list_find>
c0003b05:	83 c4 10             	add    $0x10,%esp
c0003b08:	85 c0                	test   %eax,%eax
c0003b0a:	74 22                	je     c0003b2e <thread_unblock+0xaf>
c0003b0c:	8d 83 28 d8 ff ff    	lea    -0x27d8(%ebx),%eax
c0003b12:	50                   	push   %eax
c0003b13:	8d 83 f4 d8 ff ff    	lea    -0x270c(%ebx),%eax
c0003b19:	50                   	push   %eax
c0003b1a:	68 94 00 00 00       	push   $0x94
c0003b1f:	8d 83 69 d6 ff ff    	lea    -0x2997(%ebx),%eax
c0003b25:	50                   	push   %eax
c0003b26:	e8 7d f9 ff ff       	call   c00034a8 <panic_spin>
c0003b2b:	83 c4 10             	add    $0x10,%esp
c0003b2e:	8b 45 08             	mov    0x8(%ebp),%eax
c0003b31:	83 c0 20             	add    $0x20,%eax
c0003b34:	83 ec 08             	sub    $0x8,%esp
c0003b37:	50                   	push   %eax
c0003b38:	c7 c0 cc 83 00 c0    	mov    $0xc00083cc,%eax
c0003b3e:	50                   	push   %eax
c0003b3f:	e8 5a 02 00 00       	call   c0003d9e <list_find>
c0003b44:	83 c4 10             	add    $0x10,%esp
c0003b47:	85 c0                	test   %eax,%eax
c0003b49:	74 22                	je     c0003b6d <thread_unblock+0xee>
c0003b4b:	8d 83 60 d8 ff ff    	lea    -0x27a0(%ebx),%eax
c0003b51:	50                   	push   %eax
c0003b52:	8d 83 f4 d8 ff ff    	lea    -0x270c(%ebx),%eax
c0003b58:	50                   	push   %eax
c0003b59:	68 96 00 00 00       	push   $0x96
c0003b5e:	8d 83 69 d6 ff ff    	lea    -0x2997(%ebx),%eax
c0003b64:	50                   	push   %eax
c0003b65:	e8 3e f9 ff ff       	call   c00034a8 <panic_spin>
c0003b6a:	83 c4 10             	add    $0x10,%esp
c0003b6d:	8b 45 08             	mov    0x8(%ebp),%eax
c0003b70:	83 c0 20             	add    $0x20,%eax
c0003b73:	83 ec 08             	sub    $0x8,%esp
c0003b76:	50                   	push   %eax
c0003b77:	c7 c0 cc 83 00 c0    	mov    $0xc00083cc,%eax
c0003b7d:	50                   	push   %eax
c0003b7e:	e8 46 01 00 00       	call   c0003cc9 <list_push>
c0003b83:	83 c4 10             	add    $0x10,%esp
c0003b86:	8b 45 08             	mov    0x8(%ebp),%eax
c0003b89:	c7 40 04 01 00 00 00 	movl   $0x1,0x4(%eax)
c0003b90:	83 ec 0c             	sub    $0xc,%esp
c0003b93:	ff 75 f4             	pushl  -0xc(%ebp)
c0003b96:	e8 a7 df ff ff       	call   c0001b42 <intr_set_status>
c0003b9b:	83 c4 10             	add    $0x10,%esp
c0003b9e:	90                   	nop
c0003b9f:	8b 5d fc             	mov    -0x4(%ebp),%ebx
c0003ba2:	c9                   	leave  
c0003ba3:	c3                   	ret    

c0003ba4 <thread_init>:
c0003ba4:	f3 0f 1e fb          	endbr32 
c0003ba8:	55                   	push   %ebp
c0003ba9:	89 e5                	mov    %esp,%ebp
c0003bab:	53                   	push   %ebx
c0003bac:	83 ec 04             	sub    $0x4,%esp
c0003baf:	e8 c4 da ff ff       	call   c0001678 <__x86.get_pc_thunk.bx>
c0003bb4:	81 c3 4c 44 00 00    	add    $0x444c,%ebx
c0003bba:	83 ec 0c             	sub    $0xc,%esp
c0003bbd:	8d 83 8e d8 ff ff    	lea    -0x2772(%ebx),%eax
c0003bc3:	50                   	push   %eax
c0003bc4:	e8 fa e7 ff ff       	call   c00023c3 <put_str>
c0003bc9:	83 c4 10             	add    $0x10,%esp
c0003bcc:	83 ec 0c             	sub    $0xc,%esp
c0003bcf:	c7 c0 cc 83 00 c0    	mov    $0xc00083cc,%eax
c0003bd5:	50                   	push   %eax
c0003bd6:	e8 5a 00 00 00       	call   c0003c35 <list_init>
c0003bdb:	83 c4 10             	add    $0x10,%esp
c0003bde:	83 ec 0c             	sub    $0xc,%esp
c0003be1:	c7 c0 dc 83 00 c0    	mov    $0xc00083dc,%eax
c0003be7:	50                   	push   %eax
c0003be8:	e8 48 00 00 00       	call   c0003c35 <list_init>
c0003bed:	83 c4 10             	add    $0x10,%esp
c0003bf0:	e8 1b fc ff ff       	call   c0003810 <make_main_thread>
c0003bf5:	83 ec 0c             	sub    $0xc,%esp
c0003bf8:	8d 83 a1 d8 ff ff    	lea    -0x275f(%ebx),%eax
c0003bfe:	50                   	push   %eax
c0003bff:	e8 bf e7 ff ff       	call   c00023c3 <put_str>
c0003c04:	83 c4 10             	add    $0x10,%esp
c0003c07:	90                   	nop
c0003c08:	8b 5d fc             	mov    -0x4(%ebp),%ebx
c0003c0b:	c9                   	leave  
c0003c0c:	c3                   	ret    

c0003c0d <__x86.get_pc_thunk.dx>:
c0003c0d:	8b 14 24             	mov    (%esp),%edx
c0003c10:	c3                   	ret    
c0003c11:	66 90                	xchg   %ax,%ax
c0003c13:	66 90                	xchg   %ax,%ax
c0003c15:	66 90                	xchg   %ax,%ax
c0003c17:	66 90                	xchg   %ax,%ax
c0003c19:	66 90                	xchg   %ax,%ax
c0003c1b:	66 90                	xchg   %ax,%ax
c0003c1d:	66 90                	xchg   %ax,%ax
c0003c1f:	90                   	nop

c0003c20 <switch_to>:
c0003c20:	56                   	push   %esi
c0003c21:	57                   	push   %edi
c0003c22:	53                   	push   %ebx
c0003c23:	55                   	push   %ebp
c0003c24:	8b 44 24 14          	mov    0x14(%esp),%eax
c0003c28:	89 20                	mov    %esp,(%eax)
c0003c2a:	8b 44 24 18          	mov    0x18(%esp),%eax
c0003c2e:	8b 20                	mov    (%eax),%esp
c0003c30:	5d                   	pop    %ebp
c0003c31:	5b                   	pop    %ebx
c0003c32:	5f                   	pop    %edi
c0003c33:	5e                   	pop    %esi
c0003c34:	c3                   	ret    

c0003c35 <list_init>:
c0003c35:	f3 0f 1e fb          	endbr32 
c0003c39:	55                   	push   %ebp
c0003c3a:	89 e5                	mov    %esp,%ebp
c0003c3c:	e8 33 da ff ff       	call   c0001674 <__x86.get_pc_thunk.ax>
c0003c41:	05 bf 43 00 00       	add    $0x43bf,%eax
c0003c46:	8b 45 08             	mov    0x8(%ebp),%eax
c0003c49:	c7 00 00 00 00 00    	movl   $0x0,(%eax)
c0003c4f:	8b 45 08             	mov    0x8(%ebp),%eax
c0003c52:	8d 50 08             	lea    0x8(%eax),%edx
c0003c55:	8b 45 08             	mov    0x8(%ebp),%eax
c0003c58:	89 50 04             	mov    %edx,0x4(%eax)
c0003c5b:	8b 55 08             	mov    0x8(%ebp),%edx
c0003c5e:	8b 45 08             	mov    0x8(%ebp),%eax
c0003c61:	89 50 08             	mov    %edx,0x8(%eax)
c0003c64:	8b 45 08             	mov    0x8(%ebp),%eax
c0003c67:	c7 40 0c 00 00 00 00 	movl   $0x0,0xc(%eax)
c0003c6e:	90                   	nop
c0003c6f:	5d                   	pop    %ebp
c0003c70:	c3                   	ret    

c0003c71 <list_insert_before>:
c0003c71:	f3 0f 1e fb          	endbr32 
c0003c75:	55                   	push   %ebp
c0003c76:	89 e5                	mov    %esp,%ebp
c0003c78:	53                   	push   %ebx
c0003c79:	83 ec 14             	sub    $0x14,%esp
c0003c7c:	e8 f7 d9 ff ff       	call   c0001678 <__x86.get_pc_thunk.bx>
c0003c81:	81 c3 7f 43 00 00    	add    $0x437f,%ebx
c0003c87:	e8 7f de ff ff       	call   c0001b0b <intr_disable>
c0003c8c:	89 45 f4             	mov    %eax,-0xc(%ebp)
c0003c8f:	8b 45 08             	mov    0x8(%ebp),%eax
c0003c92:	8b 00                	mov    (%eax),%eax
c0003c94:	8b 55 0c             	mov    0xc(%ebp),%edx
c0003c97:	89 50 04             	mov    %edx,0x4(%eax)
c0003c9a:	8b 45 08             	mov    0x8(%ebp),%eax
c0003c9d:	8b 10                	mov    (%eax),%edx
c0003c9f:	8b 45 0c             	mov    0xc(%ebp),%eax
c0003ca2:	89 10                	mov    %edx,(%eax)
c0003ca4:	8b 45 0c             	mov    0xc(%ebp),%eax
c0003ca7:	8b 55 08             	mov    0x8(%ebp),%edx
c0003caa:	89 50 04             	mov    %edx,0x4(%eax)
c0003cad:	8b 45 08             	mov    0x8(%ebp),%eax
c0003cb0:	8b 55 0c             	mov    0xc(%ebp),%edx
c0003cb3:	89 10                	mov    %edx,(%eax)
c0003cb5:	83 ec 0c             	sub    $0xc,%esp
c0003cb8:	ff 75 f4             	pushl  -0xc(%ebp)
c0003cbb:	e8 82 de ff ff       	call   c0001b42 <intr_set_status>
c0003cc0:	83 c4 10             	add    $0x10,%esp
c0003cc3:	90                   	nop
c0003cc4:	8b 5d fc             	mov    -0x4(%ebp),%ebx
c0003cc7:	c9                   	leave  
c0003cc8:	c3                   	ret    

c0003cc9 <list_push>:
c0003cc9:	f3 0f 1e fb          	endbr32 
c0003ccd:	55                   	push   %ebp
c0003cce:	89 e5                	mov    %esp,%ebp
c0003cd0:	83 ec 08             	sub    $0x8,%esp
c0003cd3:	e8 9c d9 ff ff       	call   c0001674 <__x86.get_pc_thunk.ax>
c0003cd8:	05 28 43 00 00       	add    $0x4328,%eax
c0003cdd:	8b 45 08             	mov    0x8(%ebp),%eax
c0003ce0:	8b 40 04             	mov    0x4(%eax),%eax
c0003ce3:	83 ec 08             	sub    $0x8,%esp
c0003ce6:	ff 75 0c             	pushl  0xc(%ebp)
c0003ce9:	50                   	push   %eax
c0003cea:	e8 82 ff ff ff       	call   c0003c71 <list_insert_before>
c0003cef:	83 c4 10             	add    $0x10,%esp
c0003cf2:	90                   	nop
c0003cf3:	c9                   	leave  
c0003cf4:	c3                   	ret    

c0003cf5 <list_append>:
c0003cf5:	f3 0f 1e fb          	endbr32 
c0003cf9:	55                   	push   %ebp
c0003cfa:	89 e5                	mov    %esp,%ebp
c0003cfc:	83 ec 08             	sub    $0x8,%esp
c0003cff:	e8 70 d9 ff ff       	call   c0001674 <__x86.get_pc_thunk.ax>
c0003d04:	05 fc 42 00 00       	add    $0x42fc,%eax
c0003d09:	8b 45 08             	mov    0x8(%ebp),%eax
c0003d0c:	83 c0 08             	add    $0x8,%eax
c0003d0f:	83 ec 08             	sub    $0x8,%esp
c0003d12:	ff 75 0c             	pushl  0xc(%ebp)
c0003d15:	50                   	push   %eax
c0003d16:	e8 56 ff ff ff       	call   c0003c71 <list_insert_before>
c0003d1b:	83 c4 10             	add    $0x10,%esp
c0003d1e:	90                   	nop
c0003d1f:	c9                   	leave  
c0003d20:	c3                   	ret    

c0003d21 <list_remove>:
c0003d21:	f3 0f 1e fb          	endbr32 
c0003d25:	55                   	push   %ebp
c0003d26:	89 e5                	mov    %esp,%ebp
c0003d28:	53                   	push   %ebx
c0003d29:	83 ec 14             	sub    $0x14,%esp
c0003d2c:	e8 47 d9 ff ff       	call   c0001678 <__x86.get_pc_thunk.bx>
c0003d31:	81 c3 cf 42 00 00    	add    $0x42cf,%ebx
c0003d37:	e8 cf dd ff ff       	call   c0001b0b <intr_disable>
c0003d3c:	89 45 f4             	mov    %eax,-0xc(%ebp)
c0003d3f:	8b 45 08             	mov    0x8(%ebp),%eax
c0003d42:	8b 00                	mov    (%eax),%eax
c0003d44:	8b 55 08             	mov    0x8(%ebp),%edx
c0003d47:	8b 52 04             	mov    0x4(%edx),%edx
c0003d4a:	89 50 04             	mov    %edx,0x4(%eax)
c0003d4d:	8b 45 08             	mov    0x8(%ebp),%eax
c0003d50:	8b 40 04             	mov    0x4(%eax),%eax
c0003d53:	8b 55 08             	mov    0x8(%ebp),%edx
c0003d56:	8b 12                	mov    (%edx),%edx
c0003d58:	89 10                	mov    %edx,(%eax)
c0003d5a:	83 ec 0c             	sub    $0xc,%esp
c0003d5d:	ff 75 f4             	pushl  -0xc(%ebp)
c0003d60:	e8 dd dd ff ff       	call   c0001b42 <intr_set_status>
c0003d65:	83 c4 10             	add    $0x10,%esp
c0003d68:	90                   	nop
c0003d69:	8b 5d fc             	mov    -0x4(%ebp),%ebx
c0003d6c:	c9                   	leave  
c0003d6d:	c3                   	ret    

c0003d6e <list_pop>:
c0003d6e:	f3 0f 1e fb          	endbr32 
c0003d72:	55                   	push   %ebp
c0003d73:	89 e5                	mov    %esp,%ebp
c0003d75:	83 ec 18             	sub    $0x18,%esp
c0003d78:	e8 f7 d8 ff ff       	call   c0001674 <__x86.get_pc_thunk.ax>
c0003d7d:	05 83 42 00 00       	add    $0x4283,%eax
c0003d82:	8b 45 08             	mov    0x8(%ebp),%eax
c0003d85:	8b 40 04             	mov    0x4(%eax),%eax
c0003d88:	89 45 f4             	mov    %eax,-0xc(%ebp)
c0003d8b:	83 ec 0c             	sub    $0xc,%esp
c0003d8e:	ff 75 f4             	pushl  -0xc(%ebp)
c0003d91:	e8 8b ff ff ff       	call   c0003d21 <list_remove>
c0003d96:	83 c4 10             	add    $0x10,%esp
c0003d99:	8b 45 f4             	mov    -0xc(%ebp),%eax
c0003d9c:	c9                   	leave  
c0003d9d:	c3                   	ret    

c0003d9e <list_find>:
c0003d9e:	f3 0f 1e fb          	endbr32 
c0003da2:	55                   	push   %ebp
c0003da3:	89 e5                	mov    %esp,%ebp
c0003da5:	83 ec 10             	sub    $0x10,%esp
c0003da8:	e8 c7 d8 ff ff       	call   c0001674 <__x86.get_pc_thunk.ax>
c0003dad:	05 53 42 00 00       	add    $0x4253,%eax
c0003db2:	8b 45 08             	mov    0x8(%ebp),%eax
c0003db5:	8b 40 04             	mov    0x4(%eax),%eax
c0003db8:	89 45 fc             	mov    %eax,-0x4(%ebp)
c0003dbb:	eb 18                	jmp    c0003dd5 <list_find+0x37>
c0003dbd:	8b 45 fc             	mov    -0x4(%ebp),%eax
c0003dc0:	3b 45 0c             	cmp    0xc(%ebp),%eax
c0003dc3:	75 07                	jne    c0003dcc <list_find+0x2e>
c0003dc5:	b8 01 00 00 00       	mov    $0x1,%eax
c0003dca:	eb 19                	jmp    c0003de5 <list_find+0x47>
c0003dcc:	8b 45 fc             	mov    -0x4(%ebp),%eax
c0003dcf:	8b 40 04             	mov    0x4(%eax),%eax
c0003dd2:	89 45 fc             	mov    %eax,-0x4(%ebp)
c0003dd5:	8b 45 08             	mov    0x8(%ebp),%eax
c0003dd8:	83 c0 08             	add    $0x8,%eax
c0003ddb:	39 45 fc             	cmp    %eax,-0x4(%ebp)
c0003dde:	75 dd                	jne    c0003dbd <list_find+0x1f>
c0003de0:	b8 00 00 00 00       	mov    $0x0,%eax
c0003de5:	c9                   	leave  
c0003de6:	c3                   	ret    

c0003de7 <list_traversal>:
c0003de7:	f3 0f 1e fb          	endbr32 
c0003deb:	55                   	push   %ebp
c0003dec:	89 e5                	mov    %esp,%ebp
c0003dee:	83 ec 18             	sub    $0x18,%esp
c0003df1:	e8 7e d8 ff ff       	call   c0001674 <__x86.get_pc_thunk.ax>
c0003df6:	05 0a 42 00 00       	add    $0x420a,%eax
c0003dfb:	8b 45 08             	mov    0x8(%ebp),%eax
c0003dfe:	8b 40 04             	mov    0x4(%eax),%eax
c0003e01:	89 45 f4             	mov    %eax,-0xc(%ebp)
c0003e04:	83 ec 0c             	sub    $0xc,%esp
c0003e07:	ff 75 08             	pushl  0x8(%ebp)
c0003e0a:	e8 86 00 00 00       	call   c0003e95 <list_empty>
c0003e0f:	83 c4 10             	add    $0x10,%esp
c0003e12:	85 c0                	test   %eax,%eax
c0003e14:	74 2a                	je     c0003e40 <list_traversal+0x59>
c0003e16:	b8 00 00 00 00       	mov    $0x0,%eax
c0003e1b:	eb 33                	jmp    c0003e50 <list_traversal+0x69>
c0003e1d:	83 ec 08             	sub    $0x8,%esp
c0003e20:	ff 75 10             	pushl  0x10(%ebp)
c0003e23:	ff 75 f4             	pushl  -0xc(%ebp)
c0003e26:	8b 45 0c             	mov    0xc(%ebp),%eax
c0003e29:	ff d0                	call   *%eax
c0003e2b:	83 c4 10             	add    $0x10,%esp
c0003e2e:	85 c0                	test   %eax,%eax
c0003e30:	74 05                	je     c0003e37 <list_traversal+0x50>
c0003e32:	8b 45 f4             	mov    -0xc(%ebp),%eax
c0003e35:	eb 19                	jmp    c0003e50 <list_traversal+0x69>
c0003e37:	8b 45 f4             	mov    -0xc(%ebp),%eax
c0003e3a:	8b 40 04             	mov    0x4(%eax),%eax
c0003e3d:	89 45 f4             	mov    %eax,-0xc(%ebp)
c0003e40:	8b 45 08             	mov    0x8(%ebp),%eax
c0003e43:	83 c0 08             	add    $0x8,%eax
c0003e46:	39 45 f4             	cmp    %eax,-0xc(%ebp)
c0003e49:	75 d2                	jne    c0003e1d <list_traversal+0x36>
c0003e4b:	b8 00 00 00 00       	mov    $0x0,%eax
c0003e50:	c9                   	leave  
c0003e51:	c3                   	ret    

c0003e52 <list_len>:
c0003e52:	f3 0f 1e fb          	endbr32 
c0003e56:	55                   	push   %ebp
c0003e57:	89 e5                	mov    %esp,%ebp
c0003e59:	83 ec 10             	sub    $0x10,%esp
c0003e5c:	e8 13 d8 ff ff       	call   c0001674 <__x86.get_pc_thunk.ax>
c0003e61:	05 9f 41 00 00       	add    $0x419f,%eax
c0003e66:	8b 45 08             	mov    0x8(%ebp),%eax
c0003e69:	8b 40 04             	mov    0x4(%eax),%eax
c0003e6c:	89 45 fc             	mov    %eax,-0x4(%ebp)
c0003e6f:	c7 45 f8 00 00 00 00 	movl   $0x0,-0x8(%ebp)
c0003e76:	eb 0d                	jmp    c0003e85 <list_len+0x33>
c0003e78:	83 45 f8 01          	addl   $0x1,-0x8(%ebp)
c0003e7c:	8b 45 fc             	mov    -0x4(%ebp),%eax
c0003e7f:	8b 40 04             	mov    0x4(%eax),%eax
c0003e82:	89 45 fc             	mov    %eax,-0x4(%ebp)
c0003e85:	8b 45 08             	mov    0x8(%ebp),%eax
c0003e88:	83 c0 08             	add    $0x8,%eax
c0003e8b:	39 45 fc             	cmp    %eax,-0x4(%ebp)
c0003e8e:	75 e8                	jne    c0003e78 <list_len+0x26>
c0003e90:	8b 45 f8             	mov    -0x8(%ebp),%eax
c0003e93:	c9                   	leave  
c0003e94:	c3                   	ret    

c0003e95 <list_empty>:
c0003e95:	f3 0f 1e fb          	endbr32 
c0003e99:	55                   	push   %ebp
c0003e9a:	89 e5                	mov    %esp,%ebp
c0003e9c:	e8 d3 d7 ff ff       	call   c0001674 <__x86.get_pc_thunk.ax>
c0003ea1:	05 5f 41 00 00       	add    $0x415f,%eax
c0003ea6:	8b 45 08             	mov    0x8(%ebp),%eax
c0003ea9:	8b 40 04             	mov    0x4(%eax),%eax
c0003eac:	8b 55 08             	mov    0x8(%ebp),%edx
c0003eaf:	83 c2 08             	add    $0x8,%edx
c0003eb2:	39 d0                	cmp    %edx,%eax
c0003eb4:	0f 94 c0             	sete   %al
c0003eb7:	0f b6 c0             	movzbl %al,%eax
c0003eba:	5d                   	pop    %ebp
c0003ebb:	c3                   	ret    

c0003ebc <semaphore_init>:
c0003ebc:	f3 0f 1e fb          	endbr32 
c0003ec0:	55                   	push   %ebp
c0003ec1:	89 e5                	mov    %esp,%ebp
c0003ec3:	53                   	push   %ebx
c0003ec4:	83 ec 14             	sub    $0x14,%esp
c0003ec7:	e8 a8 d7 ff ff       	call   c0001674 <__x86.get_pc_thunk.ax>
c0003ecc:	05 34 41 00 00       	add    $0x4134,%eax
c0003ed1:	8b 55 0c             	mov    0xc(%ebp),%edx
c0003ed4:	88 55 f4             	mov    %dl,-0xc(%ebp)
c0003ed7:	8b 55 08             	mov    0x8(%ebp),%edx
c0003eda:	0f b6 4d f4          	movzbl -0xc(%ebp),%ecx
c0003ede:	88 0a                	mov    %cl,(%edx)
c0003ee0:	8b 55 08             	mov    0x8(%ebp),%edx
c0003ee3:	83 c2 04             	add    $0x4,%edx
c0003ee6:	83 ec 0c             	sub    $0xc,%esp
c0003ee9:	52                   	push   %edx
c0003eea:	89 c3                	mov    %eax,%ebx
c0003eec:	e8 44 fd ff ff       	call   c0003c35 <list_init>
c0003ef1:	83 c4 10             	add    $0x10,%esp
c0003ef4:	90                   	nop
c0003ef5:	8b 5d fc             	mov    -0x4(%ebp),%ebx
c0003ef8:	c9                   	leave  
c0003ef9:	c3                   	ret    

c0003efa <lock_init>:
c0003efa:	f3 0f 1e fb          	endbr32 
c0003efe:	55                   	push   %ebp
c0003eff:	89 e5                	mov    %esp,%ebp
c0003f01:	83 ec 08             	sub    $0x8,%esp
c0003f04:	e8 6b d7 ff ff       	call   c0001674 <__x86.get_pc_thunk.ax>
c0003f09:	05 f7 40 00 00       	add    $0x40f7,%eax
c0003f0e:	8b 45 08             	mov    0x8(%ebp),%eax
c0003f11:	c7 00 00 00 00 00    	movl   $0x0,(%eax)
c0003f17:	8b 45 08             	mov    0x8(%ebp),%eax
c0003f1a:	c7 40 18 00 00 00 00 	movl   $0x0,0x18(%eax)
c0003f21:	8b 45 08             	mov    0x8(%ebp),%eax
c0003f24:	83 c0 04             	add    $0x4,%eax
c0003f27:	83 ec 08             	sub    $0x8,%esp
c0003f2a:	6a 01                	push   $0x1
c0003f2c:	50                   	push   %eax
c0003f2d:	e8 8a ff ff ff       	call   c0003ebc <semaphore_init>
c0003f32:	83 c4 10             	add    $0x10,%esp
c0003f35:	90                   	nop
c0003f36:	c9                   	leave  
c0003f37:	c3                   	ret    

c0003f38 <semaphore_down>:
c0003f38:	f3 0f 1e fb          	endbr32 
c0003f3c:	55                   	push   %ebp
c0003f3d:	89 e5                	mov    %esp,%ebp
c0003f3f:	53                   	push   %ebx
c0003f40:	83 ec 14             	sub    $0x14,%esp
c0003f43:	e8 30 d7 ff ff       	call   c0001678 <__x86.get_pc_thunk.bx>
c0003f48:	81 c3 b8 40 00 00    	add    $0x40b8,%ebx
c0003f4e:	e8 b8 db ff ff       	call   c0001b0b <intr_disable>
c0003f53:	89 45 f4             	mov    %eax,-0xc(%ebp)
c0003f56:	eb 6a                	jmp    c0003fc2 <semaphore_down+0x8a>
c0003f58:	e8 2f f6 ff ff       	call   c000358c <running_thread>
c0003f5d:	89 45 f0             	mov    %eax,-0x10(%ebp)
c0003f60:	8b 45 f0             	mov    -0x10(%ebp),%eax
c0003f63:	8d 50 20             	lea    0x20(%eax),%edx
c0003f66:	8b 45 08             	mov    0x8(%ebp),%eax
c0003f69:	83 c0 04             	add    $0x4,%eax
c0003f6c:	83 ec 08             	sub    $0x8,%esp
c0003f6f:	52                   	push   %edx
c0003f70:	50                   	push   %eax
c0003f71:	e8 28 fe ff ff       	call   c0003d9e <list_find>
c0003f76:	83 c4 10             	add    $0x10,%esp
c0003f79:	85 c0                	test   %eax,%eax
c0003f7b:	74 1f                	je     c0003f9c <semaphore_down+0x64>
c0003f7d:	8d 83 04 d9 ff ff    	lea    -0x26fc(%ebx),%eax
c0003f83:	50                   	push   %eax
c0003f84:	8d 83 c8 d9 ff ff    	lea    -0x2638(%ebx),%eax
c0003f8a:	50                   	push   %eax
c0003f8b:	6a 16                	push   $0x16
c0003f8d:	8d 83 32 d9 ff ff    	lea    -0x26ce(%ebx),%eax
c0003f93:	50                   	push   %eax
c0003f94:	e8 0f f5 ff ff       	call   c00034a8 <panic_spin>
c0003f99:	83 c4 10             	add    $0x10,%esp
c0003f9c:	8b 45 f0             	mov    -0x10(%ebp),%eax
c0003f9f:	8d 50 20             	lea    0x20(%eax),%edx
c0003fa2:	8b 45 08             	mov    0x8(%ebp),%eax
c0003fa5:	83 c0 04             	add    $0x4,%eax
c0003fa8:	83 ec 08             	sub    $0x8,%esp
c0003fab:	52                   	push   %edx
c0003fac:	50                   	push   %eax
c0003fad:	e8 43 fd ff ff       	call   c0003cf5 <list_append>
c0003fb2:	83 c4 10             	add    $0x10,%esp
c0003fb5:	83 ec 0c             	sub    $0xc,%esp
c0003fb8:	6a 02                	push   $0x2
c0003fba:	e8 44 fa ff ff       	call   c0003a03 <thread_block>
c0003fbf:	83 c4 10             	add    $0x10,%esp
c0003fc2:	8b 45 08             	mov    0x8(%ebp),%eax
c0003fc5:	0f b6 00             	movzbl (%eax),%eax
c0003fc8:	84 c0                	test   %al,%al
c0003fca:	74 8c                	je     c0003f58 <semaphore_down+0x20>
c0003fcc:	8b 45 08             	mov    0x8(%ebp),%eax
c0003fcf:	0f b6 00             	movzbl (%eax),%eax
c0003fd2:	8d 50 ff             	lea    -0x1(%eax),%edx
c0003fd5:	8b 45 08             	mov    0x8(%ebp),%eax
c0003fd8:	88 10                	mov    %dl,(%eax)
c0003fda:	8b 45 08             	mov    0x8(%ebp),%eax
c0003fdd:	0f b6 00             	movzbl (%eax),%eax
c0003fe0:	84 c0                	test   %al,%al
c0003fe2:	74 1f                	je     c0004003 <semaphore_down+0xcb>
c0003fe4:	8d 83 47 d9 ff ff    	lea    -0x26b9(%ebx),%eax
c0003fea:	50                   	push   %eax
c0003feb:	8d 83 c8 d9 ff ff    	lea    -0x2638(%ebx),%eax
c0003ff1:	50                   	push   %eax
c0003ff2:	6a 1c                	push   $0x1c
c0003ff4:	8d 83 32 d9 ff ff    	lea    -0x26ce(%ebx),%eax
c0003ffa:	50                   	push   %eax
c0003ffb:	e8 a8 f4 ff ff       	call   c00034a8 <panic_spin>
c0004000:	83 c4 10             	add    $0x10,%esp
c0004003:	83 ec 0c             	sub    $0xc,%esp
c0004006:	ff 75 f4             	pushl  -0xc(%ebp)
c0004009:	e8 34 db ff ff       	call   c0001b42 <intr_set_status>
c000400e:	83 c4 10             	add    $0x10,%esp
c0004011:	90                   	nop
c0004012:	8b 5d fc             	mov    -0x4(%ebp),%ebx
c0004015:	c9                   	leave  
c0004016:	c3                   	ret    

c0004017 <semaphore_up>:
c0004017:	f3 0f 1e fb          	endbr32 
c000401b:	55                   	push   %ebp
c000401c:	89 e5                	mov    %esp,%ebp
c000401e:	53                   	push   %ebx
c000401f:	83 ec 14             	sub    $0x14,%esp
c0004022:	e8 51 d6 ff ff       	call   c0001678 <__x86.get_pc_thunk.bx>
c0004027:	81 c3 d9 3f 00 00    	add    $0x3fd9,%ebx
c000402d:	e8 d9 da ff ff       	call   c0001b0b <intr_disable>
c0004032:	89 45 f4             	mov    %eax,-0xc(%ebp)
c0004035:	8b 45 08             	mov    0x8(%ebp),%eax
c0004038:	0f b6 00             	movzbl (%eax),%eax
c000403b:	84 c0                	test   %al,%al
c000403d:	74 1f                	je     c000405e <semaphore_up+0x47>
c000403f:	8d 83 47 d9 ff ff    	lea    -0x26b9(%ebx),%eax
c0004045:	50                   	push   %eax
c0004046:	8d 83 d8 d9 ff ff    	lea    -0x2628(%ebx),%eax
c000404c:	50                   	push   %eax
c000404d:	6a 22                	push   $0x22
c000404f:	8d 83 32 d9 ff ff    	lea    -0x26ce(%ebx),%eax
c0004055:	50                   	push   %eax
c0004056:	e8 4d f4 ff ff       	call   c00034a8 <panic_spin>
c000405b:	83 c4 10             	add    $0x10,%esp
c000405e:	8b 45 08             	mov    0x8(%ebp),%eax
c0004061:	83 c0 04             	add    $0x4,%eax
c0004064:	83 ec 0c             	sub    $0xc,%esp
c0004067:	50                   	push   %eax
c0004068:	e8 28 fe ff ff       	call   c0003e95 <list_empty>
c000406d:	83 c4 10             	add    $0x10,%esp
c0004070:	85 c0                	test   %eax,%eax
c0004072:	75 26                	jne    c000409a <semaphore_up+0x83>
c0004074:	8b 45 08             	mov    0x8(%ebp),%eax
c0004077:	83 c0 04             	add    $0x4,%eax
c000407a:	83 ec 0c             	sub    $0xc,%esp
c000407d:	50                   	push   %eax
c000407e:	e8 eb fc ff ff       	call   c0003d6e <list_pop>
c0004083:	83 c4 10             	add    $0x10,%esp
c0004086:	83 e8 20             	sub    $0x20,%eax
c0004089:	89 45 f0             	mov    %eax,-0x10(%ebp)
c000408c:	83 ec 0c             	sub    $0xc,%esp
c000408f:	ff 75 f0             	pushl  -0x10(%ebp)
c0004092:	e8 e8 f9 ff ff       	call   c0003a7f <thread_unblock>
c0004097:	83 c4 10             	add    $0x10,%esp
c000409a:	8b 45 08             	mov    0x8(%ebp),%eax
c000409d:	0f b6 00             	movzbl (%eax),%eax
c00040a0:	8d 50 01             	lea    0x1(%eax),%edx
c00040a3:	8b 45 08             	mov    0x8(%ebp),%eax
c00040a6:	88 10                	mov    %dl,(%eax)
c00040a8:	8b 45 08             	mov    0x8(%ebp),%eax
c00040ab:	0f b6 00             	movzbl (%eax),%eax
c00040ae:	3c 01                	cmp    $0x1,%al
c00040b0:	74 1f                	je     c00040d1 <semaphore_up+0xba>
c00040b2:	8d 83 58 d9 ff ff    	lea    -0x26a8(%ebx),%eax
c00040b8:	50                   	push   %eax
c00040b9:	8d 83 d8 d9 ff ff    	lea    -0x2628(%ebx),%eax
c00040bf:	50                   	push   %eax
c00040c0:	6a 2a                	push   $0x2a
c00040c2:	8d 83 32 d9 ff ff    	lea    -0x26ce(%ebx),%eax
c00040c8:	50                   	push   %eax
c00040c9:	e8 da f3 ff ff       	call   c00034a8 <panic_spin>
c00040ce:	83 c4 10             	add    $0x10,%esp
c00040d1:	83 ec 0c             	sub    $0xc,%esp
c00040d4:	ff 75 f4             	pushl  -0xc(%ebp)
c00040d7:	e8 66 da ff ff       	call   c0001b42 <intr_set_status>
c00040dc:	83 c4 10             	add    $0x10,%esp
c00040df:	90                   	nop
c00040e0:	8b 5d fc             	mov    -0x4(%ebp),%ebx
c00040e3:	c9                   	leave  
c00040e4:	c3                   	ret    

c00040e5 <lock_acquire>:
c00040e5:	f3 0f 1e fb          	endbr32 
c00040e9:	55                   	push   %ebp
c00040ea:	89 e5                	mov    %esp,%ebp
c00040ec:	53                   	push   %ebx
c00040ed:	83 ec 14             	sub    $0x14,%esp
c00040f0:	e8 83 d5 ff ff       	call   c0001678 <__x86.get_pc_thunk.bx>
c00040f5:	81 c3 0b 3f 00 00    	add    $0x3f0b,%ebx
c00040fb:	e8 8c f4 ff ff       	call   c000358c <running_thread>
c0004100:	89 45 f4             	mov    %eax,-0xc(%ebp)
c0004103:	8b 45 08             	mov    0x8(%ebp),%eax
c0004106:	8b 00                	mov    (%eax),%eax
c0004108:	39 45 f4             	cmp    %eax,-0xc(%ebp)
c000410b:	74 4f                	je     c000415c <lock_acquire+0x77>
c000410d:	8b 45 08             	mov    0x8(%ebp),%eax
c0004110:	83 c0 04             	add    $0x4,%eax
c0004113:	83 ec 0c             	sub    $0xc,%esp
c0004116:	50                   	push   %eax
c0004117:	e8 1c fe ff ff       	call   c0003f38 <semaphore_down>
c000411c:	83 c4 10             	add    $0x10,%esp
c000411f:	8b 45 08             	mov    0x8(%ebp),%eax
c0004122:	8b 55 f4             	mov    -0xc(%ebp),%edx
c0004125:	89 10                	mov    %edx,(%eax)
c0004127:	8b 45 08             	mov    0x8(%ebp),%eax
c000412a:	8b 40 18             	mov    0x18(%eax),%eax
c000412d:	85 c0                	test   %eax,%eax
c000412f:	74 1f                	je     c0004150 <lock_acquire+0x6b>
c0004131:	8d 83 69 d9 ff ff    	lea    -0x2697(%ebx),%eax
c0004137:	50                   	push   %eax
c0004138:	8d 83 e8 d9 ff ff    	lea    -0x2618(%ebx),%eax
c000413e:	50                   	push   %eax
c000413f:	6a 36                	push   $0x36
c0004141:	8d 83 32 d9 ff ff    	lea    -0x26ce(%ebx),%eax
c0004147:	50                   	push   %eax
c0004148:	e8 5b f3 ff ff       	call   c00034a8 <panic_spin>
c000414d:	83 c4 10             	add    $0x10,%esp
c0004150:	8b 45 08             	mov    0x8(%ebp),%eax
c0004153:	c7 40 18 01 00 00 00 	movl   $0x1,0x18(%eax)
c000415a:	eb 0f                	jmp    c000416b <lock_acquire+0x86>
c000415c:	8b 45 08             	mov    0x8(%ebp),%eax
c000415f:	8b 40 18             	mov    0x18(%eax),%eax
c0004162:	8d 50 01             	lea    0x1(%eax),%edx
c0004165:	8b 45 08             	mov    0x8(%ebp),%eax
c0004168:	89 50 18             	mov    %edx,0x18(%eax)
c000416b:	90                   	nop
c000416c:	8b 5d fc             	mov    -0x4(%ebp),%ebx
c000416f:	c9                   	leave  
c0004170:	c3                   	ret    

c0004171 <lock_release>:
c0004171:	f3 0f 1e fb          	endbr32 
c0004175:	55                   	push   %ebp
c0004176:	89 e5                	mov    %esp,%ebp
c0004178:	56                   	push   %esi
c0004179:	53                   	push   %ebx
c000417a:	e8 f9 d4 ff ff       	call   c0001678 <__x86.get_pc_thunk.bx>
c000417f:	81 c3 81 3e 00 00    	add    $0x3e81,%ebx
c0004185:	8b 45 08             	mov    0x8(%ebp),%eax
c0004188:	8b 30                	mov    (%eax),%esi
c000418a:	e8 fd f3 ff ff       	call   c000358c <running_thread>
c000418f:	39 c6                	cmp    %eax,%esi
c0004191:	74 1f                	je     c00041b2 <lock_release+0x41>
c0004193:	8d 83 88 d9 ff ff    	lea    -0x2678(%ebx),%eax
c0004199:	50                   	push   %eax
c000419a:	8d 83 f8 d9 ff ff    	lea    -0x2608(%ebx),%eax
c00041a0:	50                   	push   %eax
c00041a1:	6a 41                	push   $0x41
c00041a3:	8d 83 32 d9 ff ff    	lea    -0x26ce(%ebx),%eax
c00041a9:	50                   	push   %eax
c00041aa:	e8 f9 f2 ff ff       	call   c00034a8 <panic_spin>
c00041af:	83 c4 10             	add    $0x10,%esp
c00041b2:	8b 45 08             	mov    0x8(%ebp),%eax
c00041b5:	8b 40 18             	mov    0x18(%eax),%eax
c00041b8:	83 f8 01             	cmp    $0x1,%eax
c00041bb:	76 11                	jbe    c00041ce <lock_release+0x5d>
c00041bd:	8b 45 08             	mov    0x8(%ebp),%eax
c00041c0:	8b 40 18             	mov    0x18(%eax),%eax
c00041c3:	8d 50 ff             	lea    -0x1(%eax),%edx
c00041c6:	8b 45 08             	mov    0x8(%ebp),%eax
c00041c9:	89 50 18             	mov    %edx,0x18(%eax)
c00041cc:	eb 4f                	jmp    c000421d <lock_release+0xac>
c00041ce:	8b 45 08             	mov    0x8(%ebp),%eax
c00041d1:	8b 40 18             	mov    0x18(%eax),%eax
c00041d4:	83 f8 01             	cmp    $0x1,%eax
c00041d7:	74 1f                	je     c00041f8 <lock_release+0x87>
c00041d9:	8d 83 aa d9 ff ff    	lea    -0x2656(%ebx),%eax
c00041df:	50                   	push   %eax
c00041e0:	8d 83 f8 d9 ff ff    	lea    -0x2608(%ebx),%eax
c00041e6:	50                   	push   %eax
c00041e7:	6a 48                	push   $0x48
c00041e9:	8d 83 32 d9 ff ff    	lea    -0x26ce(%ebx),%eax
c00041ef:	50                   	push   %eax
c00041f0:	e8 b3 f2 ff ff       	call   c00034a8 <panic_spin>
c00041f5:	83 c4 10             	add    $0x10,%esp
c00041f8:	8b 45 08             	mov    0x8(%ebp),%eax
c00041fb:	c7 00 00 00 00 00    	movl   $0x0,(%eax)
c0004201:	8b 45 08             	mov    0x8(%ebp),%eax
c0004204:	c7 40 18 00 00 00 00 	movl   $0x0,0x18(%eax)
c000420b:	8b 45 08             	mov    0x8(%ebp),%eax
c000420e:	83 c0 04             	add    $0x4,%eax
c0004211:	83 ec 0c             	sub    $0xc,%esp
c0004214:	50                   	push   %eax
c0004215:	e8 fd fd ff ff       	call   c0004017 <semaphore_up>
c000421a:	83 c4 10             	add    $0x10,%esp
c000421d:	8d 65 f8             	lea    -0x8(%ebp),%esp
c0004220:	5b                   	pop    %ebx
c0004221:	5e                   	pop    %esi
c0004222:	5d                   	pop    %ebp
c0004223:	c3                   	ret    

c0004224 <console_init>:
c0004224:	f3 0f 1e fb          	endbr32 
c0004228:	55                   	push   %ebp
c0004229:	89 e5                	mov    %esp,%ebp
c000422b:	53                   	push   %ebx
c000422c:	83 ec 04             	sub    $0x4,%esp
c000422f:	e8 40 d4 ff ff       	call   c0001674 <__x86.get_pc_thunk.ax>
c0004234:	05 cc 3d 00 00       	add    $0x3dcc,%eax
c0004239:	83 ec 0c             	sub    $0xc,%esp
c000423c:	8d 90 24 03 00 00    	lea    0x324(%eax),%edx
c0004242:	52                   	push   %edx
c0004243:	89 c3                	mov    %eax,%ebx
c0004245:	e8 b0 fc ff ff       	call   c0003efa <lock_init>
c000424a:	83 c4 10             	add    $0x10,%esp
c000424d:	90                   	nop
c000424e:	8b 5d fc             	mov    -0x4(%ebp),%ebx
c0004251:	c9                   	leave  
c0004252:	c3                   	ret    

c0004253 <console_acquire>:
c0004253:	f3 0f 1e fb          	endbr32 
c0004257:	55                   	push   %ebp
c0004258:	89 e5                	mov    %esp,%ebp
c000425a:	53                   	push   %ebx
c000425b:	83 ec 04             	sub    $0x4,%esp
c000425e:	e8 11 d4 ff ff       	call   c0001674 <__x86.get_pc_thunk.ax>
c0004263:	05 9d 3d 00 00       	add    $0x3d9d,%eax
c0004268:	83 ec 0c             	sub    $0xc,%esp
c000426b:	8d 90 24 03 00 00    	lea    0x324(%eax),%edx
c0004271:	52                   	push   %edx
c0004272:	89 c3                	mov    %eax,%ebx
c0004274:	e8 6c fe ff ff       	call   c00040e5 <lock_acquire>
c0004279:	83 c4 10             	add    $0x10,%esp
c000427c:	90                   	nop
c000427d:	8b 5d fc             	mov    -0x4(%ebp),%ebx
c0004280:	c9                   	leave  
c0004281:	c3                   	ret    

c0004282 <console_release>:
c0004282:	f3 0f 1e fb          	endbr32 
c0004286:	55                   	push   %ebp
c0004287:	89 e5                	mov    %esp,%ebp
c0004289:	53                   	push   %ebx
c000428a:	83 ec 04             	sub    $0x4,%esp
c000428d:	e8 e2 d3 ff ff       	call   c0001674 <__x86.get_pc_thunk.ax>
c0004292:	05 6e 3d 00 00       	add    $0x3d6e,%eax
c0004297:	83 ec 0c             	sub    $0xc,%esp
c000429a:	8d 90 24 03 00 00    	lea    0x324(%eax),%edx
c00042a0:	52                   	push   %edx
c00042a1:	89 c3                	mov    %eax,%ebx
c00042a3:	e8 c9 fe ff ff       	call   c0004171 <lock_release>
c00042a8:	83 c4 10             	add    $0x10,%esp
c00042ab:	90                   	nop
c00042ac:	8b 5d fc             	mov    -0x4(%ebp),%ebx
c00042af:	c9                   	leave  
c00042b0:	c3                   	ret    

c00042b1 <console_put_str>:
c00042b1:	f3 0f 1e fb          	endbr32 
c00042b5:	55                   	push   %ebp
c00042b6:	89 e5                	mov    %esp,%ebp
c00042b8:	53                   	push   %ebx
c00042b9:	83 ec 04             	sub    $0x4,%esp
c00042bc:	e8 b7 d3 ff ff       	call   c0001678 <__x86.get_pc_thunk.bx>
c00042c1:	81 c3 3f 3d 00 00    	add    $0x3d3f,%ebx
c00042c7:	e8 87 ff ff ff       	call   c0004253 <console_acquire>
c00042cc:	83 ec 0c             	sub    $0xc,%esp
c00042cf:	ff 75 08             	pushl  0x8(%ebp)
c00042d2:	e8 ec e0 ff ff       	call   c00023c3 <put_str>
c00042d7:	83 c4 10             	add    $0x10,%esp
c00042da:	e8 a3 ff ff ff       	call   c0004282 <console_release>
c00042df:	90                   	nop
c00042e0:	8b 5d fc             	mov    -0x4(%ebp),%ebx
c00042e3:	c9                   	leave  
c00042e4:	c3                   	ret    

c00042e5 <console_put_char>:
c00042e5:	f3 0f 1e fb          	endbr32 
c00042e9:	55                   	push   %ebp
c00042ea:	89 e5                	mov    %esp,%ebp
c00042ec:	53                   	push   %ebx
c00042ed:	83 ec 14             	sub    $0x14,%esp
c00042f0:	e8 83 d3 ff ff       	call   c0001678 <__x86.get_pc_thunk.bx>
c00042f5:	81 c3 0b 3d 00 00    	add    $0x3d0b,%ebx
c00042fb:	8b 45 08             	mov    0x8(%ebp),%eax
c00042fe:	88 45 f4             	mov    %al,-0xc(%ebp)
c0004301:	e8 4d ff ff ff       	call   c0004253 <console_acquire>
c0004306:	0f b6 45 f4          	movzbl -0xc(%ebp),%eax
c000430a:	83 ec 0c             	sub    $0xc,%esp
c000430d:	50                   	push   %eax
c000430e:	e8 ce e0 ff ff       	call   c00023e1 <put_char>
c0004313:	83 c4 10             	add    $0x10,%esp
c0004316:	e8 67 ff ff ff       	call   c0004282 <console_release>
c000431b:	90                   	nop
c000431c:	8b 5d fc             	mov    -0x4(%ebp),%ebx
c000431f:	c9                   	leave  
c0004320:	c3                   	ret    

c0004321 <console_put_int>:
c0004321:	f3 0f 1e fb          	endbr32 
c0004325:	55                   	push   %ebp
c0004326:	89 e5                	mov    %esp,%ebp
c0004328:	53                   	push   %ebx
c0004329:	83 ec 04             	sub    $0x4,%esp
c000432c:	e8 47 d3 ff ff       	call   c0001678 <__x86.get_pc_thunk.bx>
c0004331:	81 c3 cf 3c 00 00    	add    $0x3ccf,%ebx
c0004337:	e8 17 ff ff ff       	call   c0004253 <console_acquire>
c000433c:	83 ec 0c             	sub    $0xc,%esp
c000433f:	ff 75 08             	pushl  0x8(%ebp)
c0004342:	e8 19 e0 ff ff       	call   c0002360 <put_int>
c0004347:	83 c4 10             	add    $0x10,%esp
c000434a:	e8 33 ff ff ff       	call   c0004282 <console_release>
c000434f:	90                   	nop
c0004350:	8b 5d fc             	mov    -0x4(%ebp),%ebx
c0004353:	c9                   	leave  
c0004354:	c3                   	ret    

c0004355 <inb>:
c0004355:	55                   	push   %ebp
c0004356:	89 e5                	mov    %esp,%ebp
c0004358:	83 ec 14             	sub    $0x14,%esp
c000435b:	e8 14 d3 ff ff       	call   c0001674 <__x86.get_pc_thunk.ax>
c0004360:	05 a0 3c 00 00       	add    $0x3ca0,%eax
c0004365:	8b 45 08             	mov    0x8(%ebp),%eax
c0004368:	66 89 45 ec          	mov    %ax,-0x14(%ebp)
c000436c:	0f b7 45 ec          	movzwl -0x14(%ebp),%eax
c0004370:	89 c2                	mov    %eax,%edx
c0004372:	ec                   	in     (%dx),%al
c0004373:	88 45 ff             	mov    %al,-0x1(%ebp)
c0004376:	0f b6 45 ff          	movzbl -0x1(%ebp),%eax
c000437a:	c9                   	leave  
c000437b:	c3                   	ret    

c000437c <intr_keyboard_handler>:
c000437c:	f3 0f 1e fb          	endbr32 
c0004380:	55                   	push   %ebp
c0004381:	89 e5                	mov    %esp,%ebp
c0004383:	53                   	push   %ebx
c0004384:	83 ec 14             	sub    $0x14,%esp
c0004387:	e8 ec d2 ff ff       	call   c0001678 <__x86.get_pc_thunk.bx>
c000438c:	81 c3 74 3c 00 00    	add    $0x3c74,%ebx
c0004392:	6a 60                	push   $0x60
c0004394:	e8 bc ff ff ff       	call   c0004355 <inb>
c0004399:	83 c4 04             	add    $0x4,%esp
c000439c:	0f b6 c0             	movzbl %al,%eax
c000439f:	66 89 45 f6          	mov    %ax,-0xa(%ebp)
c00043a3:	66 81 7d f6 e0 00    	cmpw   $0xe0,-0xa(%ebp)
c00043a9:	75 0f                	jne    c00043ba <intr_keyboard_handler+0x3e>
c00043ab:	c7 83 50 03 00 00 01 	movl   $0x1,0x350(%ebx)
c00043b2:	00 00 00 
c00043b5:	e9 42 02 00 00       	jmp    c00045fc <intr_keyboard_handler+0x280>
c00043ba:	8b 83 50 03 00 00    	mov    0x350(%ebx),%eax
c00043c0:	85 c0                	test   %eax,%eax
c00043c2:	74 10                	je     c00043d4 <intr_keyboard_handler+0x58>
c00043c4:	66 81 4d f6 00 e0    	orw    $0xe000,-0xa(%ebp)
c00043ca:	c7 83 50 03 00 00 00 	movl   $0x0,0x350(%ebx)
c00043d1:	00 00 00 
c00043d4:	0f b7 45 f6          	movzwl -0xa(%ebp),%eax
c00043d8:	25 80 00 00 00       	and    $0x80,%eax
c00043dd:	85 c0                	test   %eax,%eax
c00043df:	0f 95 c0             	setne  %al
c00043e2:	0f b6 c0             	movzbl %al,%eax
c00043e5:	89 45 ec             	mov    %eax,-0x14(%ebp)
c00043e8:	83 7d ec 00          	cmpl   $0x0,-0x14(%ebp)
c00043ec:	74 6a                	je     c0004458 <intr_keyboard_handler+0xdc>
c00043ee:	66 81 65 f6 7f ff    	andw   $0xff7f,-0xa(%ebp)
c00043f4:	0f b7 45 f6          	movzwl -0xa(%ebp),%eax
c00043f8:	66 89 45 e8          	mov    %ax,-0x18(%ebp)
c00043fc:	66 83 7d e8 1d       	cmpw   $0x1d,-0x18(%ebp)
c0004401:	74 08                	je     c000440b <intr_keyboard_handler+0x8f>
c0004403:	66 81 7d e8 1d e0    	cmpw   $0xe01d,-0x18(%ebp)
c0004409:	75 0c                	jne    c0004417 <intr_keyboard_handler+0x9b>
c000440b:	c7 83 40 03 00 00 00 	movl   $0x0,0x340(%ebx)
c0004412:	00 00 00 
c0004415:	eb 3c                	jmp    c0004453 <intr_keyboard_handler+0xd7>
c0004417:	66 83 7d e8 2a       	cmpw   $0x2a,-0x18(%ebp)
c000441c:	74 07                	je     c0004425 <intr_keyboard_handler+0xa9>
c000441e:	66 83 7d e8 36       	cmpw   $0x36,-0x18(%ebp)
c0004423:	75 0c                	jne    c0004431 <intr_keyboard_handler+0xb5>
c0004425:	c7 83 44 03 00 00 00 	movl   $0x0,0x344(%ebx)
c000442c:	00 00 00 
c000442f:	eb 22                	jmp    c0004453 <intr_keyboard_handler+0xd7>
c0004431:	66 83 7d e8 38       	cmpw   $0x38,-0x18(%ebp)
c0004436:	74 0c                	je     c0004444 <intr_keyboard_handler+0xc8>
c0004438:	66 81 7d e8 38 e0    	cmpw   $0xe038,-0x18(%ebp)
c000443e:	0f 85 b7 01 00 00    	jne    c00045fb <intr_keyboard_handler+0x27f>
c0004444:	c7 83 48 03 00 00 00 	movl   $0x0,0x348(%ebx)
c000444b:	00 00 00 
c000444e:	e9 a8 01 00 00       	jmp    c00045fb <intr_keyboard_handler+0x27f>
c0004453:	e9 a3 01 00 00       	jmp    c00045fb <intr_keyboard_handler+0x27f>
c0004458:	66 83 7d f6 00       	cmpw   $0x0,-0xa(%ebp)
c000445d:	74 07                	je     c0004466 <intr_keyboard_handler+0xea>
c000445f:	66 83 7d f6 3a       	cmpw   $0x3a,-0xa(%ebp)
c0004464:	76 27                	jbe    c000448d <intr_keyboard_handler+0x111>
c0004466:	66 81 7d f6 38 e0    	cmpw   $0xe038,-0xa(%ebp)
c000446c:	74 1f                	je     c000448d <intr_keyboard_handler+0x111>
c000446e:	66 81 7d f6 1d e0    	cmpw   $0xe01d,-0xa(%ebp)
c0004474:	74 17                	je     c000448d <intr_keyboard_handler+0x111>
c0004476:	83 ec 0c             	sub    $0xc,%esp
c0004479:	8d 83 05 da ff ff    	lea    -0x25fb(%ebx),%eax
c000447f:	50                   	push   %eax
c0004480:	e8 3e df ff ff       	call   c00023c3 <put_str>
c0004485:	83 c4 10             	add    $0x10,%esp
c0004488:	e9 6f 01 00 00       	jmp    c00045fc <intr_keyboard_handler+0x280>
c000448d:	c7 45 f0 00 00 00 00 	movl   $0x0,-0x10(%ebp)
c0004494:	66 83 7d f6 0d       	cmpw   $0xd,-0xa(%ebp)
c0004499:	76 3f                	jbe    c00044da <intr_keyboard_handler+0x15e>
c000449b:	66 83 7d f6 29       	cmpw   $0x29,-0xa(%ebp)
c00044a0:	74 38                	je     c00044da <intr_keyboard_handler+0x15e>
c00044a2:	66 83 7d f6 1a       	cmpw   $0x1a,-0xa(%ebp)
c00044a7:	74 31                	je     c00044da <intr_keyboard_handler+0x15e>
c00044a9:	66 83 7d f6 1b       	cmpw   $0x1b,-0xa(%ebp)
c00044ae:	74 2a                	je     c00044da <intr_keyboard_handler+0x15e>
c00044b0:	66 83 7d f6 2b       	cmpw   $0x2b,-0xa(%ebp)
c00044b5:	74 23                	je     c00044da <intr_keyboard_handler+0x15e>
c00044b7:	66 83 7d f6 27       	cmpw   $0x27,-0xa(%ebp)
c00044bc:	74 1c                	je     c00044da <intr_keyboard_handler+0x15e>
c00044be:	66 83 7d f6 28       	cmpw   $0x28,-0xa(%ebp)
c00044c3:	74 15                	je     c00044da <intr_keyboard_handler+0x15e>
c00044c5:	66 83 7d f6 33       	cmpw   $0x33,-0xa(%ebp)
c00044ca:	74 0e                	je     c00044da <intr_keyboard_handler+0x15e>
c00044cc:	66 83 7d f6 34       	cmpw   $0x34,-0xa(%ebp)
c00044d1:	74 07                	je     c00044da <intr_keyboard_handler+0x15e>
c00044d3:	66 83 7d f6 35       	cmpw   $0x35,-0xa(%ebp)
c00044d8:	75 0b                	jne    c00044e5 <intr_keyboard_handler+0x169>
c00044da:	8b 83 44 03 00 00    	mov    0x344(%ebx),%eax
c00044e0:	89 45 f0             	mov    %eax,-0x10(%ebp)
c00044e3:	eb 41                	jmp    c0004526 <intr_keyboard_handler+0x1aa>
c00044e5:	8b 83 44 03 00 00    	mov    0x344(%ebx),%eax
c00044eb:	85 c0                	test   %eax,%eax
c00044ed:	74 13                	je     c0004502 <intr_keyboard_handler+0x186>
c00044ef:	8b 83 4c 03 00 00    	mov    0x34c(%ebx),%eax
c00044f5:	85 c0                	test   %eax,%eax
c00044f7:	74 09                	je     c0004502 <intr_keyboard_handler+0x186>
c00044f9:	c7 45 f0 00 00 00 00 	movl   $0x0,-0x10(%ebp)
c0004500:	eb 24                	jmp    c0004526 <intr_keyboard_handler+0x1aa>
c0004502:	8b 83 44 03 00 00    	mov    0x344(%ebx),%eax
c0004508:	85 c0                	test   %eax,%eax
c000450a:	75 0a                	jne    c0004516 <intr_keyboard_handler+0x19a>
c000450c:	8b 83 4c 03 00 00    	mov    0x34c(%ebx),%eax
c0004512:	85 c0                	test   %eax,%eax
c0004514:	74 09                	je     c000451f <intr_keyboard_handler+0x1a3>
c0004516:	c7 45 f0 01 00 00 00 	movl   $0x1,-0x10(%ebp)
c000451d:	eb 07                	jmp    c0004526 <intr_keyboard_handler+0x1aa>
c000451f:	c7 45 f0 00 00 00 00 	movl   $0x0,-0x10(%ebp)
c0004526:	0f b7 45 f6          	movzwl -0xa(%ebp),%eax
c000452a:	88 45 eb             	mov    %al,-0x15(%ebp)
c000452d:	0f b6 55 eb          	movzbl -0x15(%ebp),%edx
c0004531:	8d 83 00 01 00 00    	lea    0x100(%ebx),%eax
c0004537:	01 d2                	add    %edx,%edx
c0004539:	01 c2                	add    %eax,%edx
c000453b:	8b 45 f0             	mov    -0x10(%ebp),%eax
c000453e:	01 d0                	add    %edx,%eax
c0004540:	0f b6 00             	movzbl (%eax),%eax
c0004543:	88 45 ea             	mov    %al,-0x16(%ebp)
c0004546:	80 7d ea 00          	cmpb   $0x0,-0x16(%ebp)
c000454a:	74 42                	je     c000458e <intr_keyboard_handler+0x212>
c000454c:	83 ec 0c             	sub    $0xc,%esp
c000454f:	c7 c0 20 86 00 c0    	mov    $0xc0008620,%eax
c0004555:	50                   	push   %eax
c0004556:	e8 7a 01 00 00       	call   c00046d5 <is_queue_full>
c000455b:	83 c4 10             	add    $0x10,%esp
c000455e:	85 c0                	test   %eax,%eax
c0004560:	75 2c                	jne    c000458e <intr_keyboard_handler+0x212>
c0004562:	0f b6 45 ea          	movzbl -0x16(%ebp),%eax
c0004566:	0f b6 c0             	movzbl %al,%eax
c0004569:	83 ec 0c             	sub    $0xc,%esp
c000456c:	50                   	push   %eax
c000456d:	e8 6f de ff ff       	call   c00023e1 <put_char>
c0004572:	83 c4 10             	add    $0x10,%esp
c0004575:	0f be 45 ea          	movsbl -0x16(%ebp),%eax
c0004579:	83 ec 08             	sub    $0x8,%esp
c000457c:	50                   	push   %eax
c000457d:	c7 c0 20 86 00 c0    	mov    $0xc0008620,%eax
c0004583:	50                   	push   %eax
c0004584:	e8 dd 02 00 00       	call   c0004866 <queue_putchar>
c0004589:	83 c4 10             	add    $0x10,%esp
c000458c:	eb 6e                	jmp    c00045fc <intr_keyboard_handler+0x280>
c000458e:	66 83 7d f6 1d       	cmpw   $0x1d,-0xa(%ebp)
c0004593:	74 08                	je     c000459d <intr_keyboard_handler+0x221>
c0004595:	66 81 7d f6 1d e0    	cmpw   $0xe01d,-0xa(%ebp)
c000459b:	75 0c                	jne    c00045a9 <intr_keyboard_handler+0x22d>
c000459d:	c7 83 40 03 00 00 01 	movl   $0x1,0x340(%ebx)
c00045a4:	00 00 00 
c00045a7:	eb 53                	jmp    c00045fc <intr_keyboard_handler+0x280>
c00045a9:	66 83 7d f6 2a       	cmpw   $0x2a,-0xa(%ebp)
c00045ae:	74 07                	je     c00045b7 <intr_keyboard_handler+0x23b>
c00045b0:	66 83 7d f6 36       	cmpw   $0x36,-0xa(%ebp)
c00045b5:	75 0c                	jne    c00045c3 <intr_keyboard_handler+0x247>
c00045b7:	c7 83 44 03 00 00 01 	movl   $0x1,0x344(%ebx)
c00045be:	00 00 00 
c00045c1:	eb 39                	jmp    c00045fc <intr_keyboard_handler+0x280>
c00045c3:	66 83 7d f6 38       	cmpw   $0x38,-0xa(%ebp)
c00045c8:	74 08                	je     c00045d2 <intr_keyboard_handler+0x256>
c00045ca:	66 81 7d f6 38 e0    	cmpw   $0xe038,-0xa(%ebp)
c00045d0:	75 0c                	jne    c00045de <intr_keyboard_handler+0x262>
c00045d2:	c7 83 48 03 00 00 01 	movl   $0x1,0x348(%ebx)
c00045d9:	00 00 00 
c00045dc:	eb 1e                	jmp    c00045fc <intr_keyboard_handler+0x280>
c00045de:	66 83 7d f6 3a       	cmpw   $0x3a,-0xa(%ebp)
c00045e3:	75 17                	jne    c00045fc <intr_keyboard_handler+0x280>
c00045e5:	8b 83 4c 03 00 00    	mov    0x34c(%ebx),%eax
c00045eb:	85 c0                	test   %eax,%eax
c00045ed:	0f 94 c0             	sete   %al
c00045f0:	0f b6 c0             	movzbl %al,%eax
c00045f3:	89 83 4c 03 00 00    	mov    %eax,0x34c(%ebx)
c00045f9:	eb 01                	jmp    c00045fc <intr_keyboard_handler+0x280>
c00045fb:	90                   	nop
c00045fc:	8b 5d fc             	mov    -0x4(%ebp),%ebx
c00045ff:	c9                   	leave  
c0004600:	c3                   	ret    

c0004601 <keyboard_init>:
c0004601:	f3 0f 1e fb          	endbr32 
c0004605:	55                   	push   %ebp
c0004606:	89 e5                	mov    %esp,%ebp
c0004608:	53                   	push   %ebx
c0004609:	83 ec 04             	sub    $0x4,%esp
c000460c:	e8 67 d0 ff ff       	call   c0001678 <__x86.get_pc_thunk.bx>
c0004611:	81 c3 ef 39 00 00    	add    $0x39ef,%ebx
c0004617:	83 ec 0c             	sub    $0xc,%esp
c000461a:	8d 83 12 da ff ff    	lea    -0x25ee(%ebx),%eax
c0004620:	50                   	push   %eax
c0004621:	e8 9d dd ff ff       	call   c00023c3 <put_str>
c0004626:	83 c4 10             	add    $0x10,%esp
c0004629:	83 ec 08             	sub    $0x8,%esp
c000462c:	8d 83 7c c3 ff ff    	lea    -0x3c84(%ebx),%eax
c0004632:	50                   	push   %eax
c0004633:	6a 21                	push   $0x21
c0004635:	e8 5f d5 ff ff       	call   c0001b99 <register_handler>
c000463a:	83 c4 10             	add    $0x10,%esp
c000463d:	83 ec 0c             	sub    $0xc,%esp
c0004640:	8d 83 2a da ff ff    	lea    -0x25d6(%ebx),%eax
c0004646:	50                   	push   %eax
c0004647:	e8 77 dd ff ff       	call   c00023c3 <put_str>
c000464c:	83 c4 10             	add    $0x10,%esp
c000464f:	90                   	nop
c0004650:	8b 5d fc             	mov    -0x4(%ebp),%ebx
c0004653:	c9                   	leave  
c0004654:	c3                   	ret    

c0004655 <ioqueue_init>:
c0004655:	f3 0f 1e fb          	endbr32 
c0004659:	55                   	push   %ebp
c000465a:	89 e5                	mov    %esp,%ebp
c000465c:	53                   	push   %ebx
c000465d:	83 ec 04             	sub    $0x4,%esp
c0004660:	e8 0f d0 ff ff       	call   c0001674 <__x86.get_pc_thunk.ax>
c0004665:	05 9b 39 00 00       	add    $0x399b,%eax
c000466a:	8b 55 08             	mov    0x8(%ebp),%edx
c000466d:	83 ec 0c             	sub    $0xc,%esp
c0004670:	52                   	push   %edx
c0004671:	89 c3                	mov    %eax,%ebx
c0004673:	e8 82 f8 ff ff       	call   c0003efa <lock_init>
c0004678:	83 c4 10             	add    $0x10,%esp
c000467b:	8b 45 08             	mov    0x8(%ebp),%eax
c000467e:	c7 40 50 00 00 00 00 	movl   $0x0,0x50(%eax)
c0004685:	8b 45 08             	mov    0x8(%ebp),%eax
c0004688:	8b 50 50             	mov    0x50(%eax),%edx
c000468b:	8b 45 08             	mov    0x8(%ebp),%eax
c000468e:	89 50 4c             	mov    %edx,0x4c(%eax)
c0004691:	8b 45 08             	mov    0x8(%ebp),%eax
c0004694:	c7 40 50 00 00 00 00 	movl   $0x0,0x50(%eax)
c000469b:	8b 45 08             	mov    0x8(%ebp),%eax
c000469e:	c7 40 04 00 00 00 00 	movl   $0x0,0x4(%eax)
c00046a5:	90                   	nop
c00046a6:	8b 5d fc             	mov    -0x4(%ebp),%ebx
c00046a9:	c9                   	leave  
c00046aa:	c3                   	ret    

c00046ab <next_pos>:
c00046ab:	f3 0f 1e fb          	endbr32 
c00046af:	55                   	push   %ebp
c00046b0:	89 e5                	mov    %esp,%ebp
c00046b2:	e8 bd cf ff ff       	call   c0001674 <__x86.get_pc_thunk.ax>
c00046b7:	05 49 39 00 00       	add    $0x3949,%eax
c00046bc:	8b 45 08             	mov    0x8(%ebp),%eax
c00046bf:	8d 50 01             	lea    0x1(%eax),%edx
c00046c2:	89 d0                	mov    %edx,%eax
c00046c4:	c1 f8 1f             	sar    $0x1f,%eax
c00046c7:	c1 e8 1a             	shr    $0x1a,%eax
c00046ca:	01 c2                	add    %eax,%edx
c00046cc:	83 e2 3f             	and    $0x3f,%edx
c00046cf:	29 c2                	sub    %eax,%edx
c00046d1:	89 d0                	mov    %edx,%eax
c00046d3:	5d                   	pop    %ebp
c00046d4:	c3                   	ret    

c00046d5 <is_queue_full>:
c00046d5:	f3 0f 1e fb          	endbr32 
c00046d9:	55                   	push   %ebp
c00046da:	89 e5                	mov    %esp,%ebp
c00046dc:	e8 93 cf ff ff       	call   c0001674 <__x86.get_pc_thunk.ax>
c00046e1:	05 1f 39 00 00       	add    $0x391f,%eax
c00046e6:	8b 45 08             	mov    0x8(%ebp),%eax
c00046e9:	8b 40 4c             	mov    0x4c(%eax),%eax
c00046ec:	50                   	push   %eax
c00046ed:	e8 b9 ff ff ff       	call   c00046ab <next_pos>
c00046f2:	83 c4 04             	add    $0x4,%esp
c00046f5:	8b 55 08             	mov    0x8(%ebp),%edx
c00046f8:	8b 52 50             	mov    0x50(%edx),%edx
c00046fb:	39 d0                	cmp    %edx,%eax
c00046fd:	0f 94 c0             	sete   %al
c0004700:	0f b6 c0             	movzbl %al,%eax
c0004703:	c9                   	leave  
c0004704:	c3                   	ret    

c0004705 <is_queue_empty>:
c0004705:	f3 0f 1e fb          	endbr32 
c0004709:	55                   	push   %ebp
c000470a:	89 e5                	mov    %esp,%ebp
c000470c:	e8 63 cf ff ff       	call   c0001674 <__x86.get_pc_thunk.ax>
c0004711:	05 ef 38 00 00       	add    $0x38ef,%eax
c0004716:	8b 45 08             	mov    0x8(%ebp),%eax
c0004719:	8b 50 4c             	mov    0x4c(%eax),%edx
c000471c:	8b 45 08             	mov    0x8(%ebp),%eax
c000471f:	8b 40 50             	mov    0x50(%eax),%eax
c0004722:	39 c2                	cmp    %eax,%edx
c0004724:	0f 94 c0             	sete   %al
c0004727:	0f b6 c0             	movzbl %al,%eax
c000472a:	5d                   	pop    %ebp
c000472b:	c3                   	ret    

c000472c <queue_wait>:
c000472c:	f3 0f 1e fb          	endbr32 
c0004730:	55                   	push   %ebp
c0004731:	89 e5                	mov    %esp,%ebp
c0004733:	53                   	push   %ebx
c0004734:	83 ec 04             	sub    $0x4,%esp
c0004737:	e8 3c cf ff ff       	call   c0001678 <__x86.get_pc_thunk.bx>
c000473c:	81 c3 c4 38 00 00    	add    $0x38c4,%ebx
c0004742:	e8 45 ee ff ff       	call   c000358c <running_thread>
c0004747:	8b 55 08             	mov    0x8(%ebp),%edx
c000474a:	89 02                	mov    %eax,(%edx)
c000474c:	83 ec 0c             	sub    $0xc,%esp
c000474f:	6a 02                	push   $0x2
c0004751:	e8 ad f2 ff ff       	call   c0003a03 <thread_block>
c0004756:	83 c4 10             	add    $0x10,%esp
c0004759:	90                   	nop
c000475a:	8b 5d fc             	mov    -0x4(%ebp),%ebx
c000475d:	c9                   	leave  
c000475e:	c3                   	ret    

c000475f <wakeup>:
c000475f:	f3 0f 1e fb          	endbr32 
c0004763:	55                   	push   %ebp
c0004764:	89 e5                	mov    %esp,%ebp
c0004766:	53                   	push   %ebx
c0004767:	83 ec 04             	sub    $0x4,%esp
c000476a:	e8 05 cf ff ff       	call   c0001674 <__x86.get_pc_thunk.ax>
c000476f:	05 91 38 00 00       	add    $0x3891,%eax
c0004774:	8b 55 08             	mov    0x8(%ebp),%edx
c0004777:	8b 12                	mov    (%edx),%edx
c0004779:	83 ec 0c             	sub    $0xc,%esp
c000477c:	52                   	push   %edx
c000477d:	89 c3                	mov    %eax,%ebx
c000477f:	e8 fb f2 ff ff       	call   c0003a7f <thread_unblock>
c0004784:	83 c4 10             	add    $0x10,%esp
c0004787:	8b 45 08             	mov    0x8(%ebp),%eax
c000478a:	c7 00 00 00 00 00    	movl   $0x0,(%eax)
c0004790:	90                   	nop
c0004791:	8b 5d fc             	mov    -0x4(%ebp),%ebx
c0004794:	c9                   	leave  
c0004795:	c3                   	ret    

c0004796 <queue_getchar>:
c0004796:	f3 0f 1e fb          	endbr32 
c000479a:	55                   	push   %ebp
c000479b:	89 e5                	mov    %esp,%ebp
c000479d:	53                   	push   %ebx
c000479e:	83 ec 14             	sub    $0x14,%esp
c00047a1:	e8 d2 ce ff ff       	call   c0001678 <__x86.get_pc_thunk.bx>
c00047a6:	81 c3 5a 38 00 00    	add    $0x385a,%ebx
c00047ac:	e8 bd d3 ff ff       	call   c0001b6e <intr_get_status>
c00047b1:	85 c0                	test   %eax,%eax
c00047b3:	74 51                	je     c0004806 <queue_getchar+0x70>
c00047b5:	8d 83 40 da ff ff    	lea    -0x25c0(%ebx),%eax
c00047bb:	50                   	push   %eax
c00047bc:	8d 83 70 da ff ff    	lea    -0x2590(%ebx),%eax
c00047c2:	50                   	push   %eax
c00047c3:	6a 27                	push   $0x27
c00047c5:	8d 83 5e da ff ff    	lea    -0x25a2(%ebx),%eax
c00047cb:	50                   	push   %eax
c00047cc:	e8 d7 ec ff ff       	call   c00034a8 <panic_spin>
c00047d1:	83 c4 10             	add    $0x10,%esp
c00047d4:	eb 30                	jmp    c0004806 <queue_getchar+0x70>
c00047d6:	8b 45 08             	mov    0x8(%ebp),%eax
c00047d9:	83 ec 0c             	sub    $0xc,%esp
c00047dc:	50                   	push   %eax
c00047dd:	e8 03 f9 ff ff       	call   c00040e5 <lock_acquire>
c00047e2:	83 c4 10             	add    $0x10,%esp
c00047e5:	8b 45 08             	mov    0x8(%ebp),%eax
c00047e8:	83 c0 08             	add    $0x8,%eax
c00047eb:	83 ec 0c             	sub    $0xc,%esp
c00047ee:	50                   	push   %eax
c00047ef:	e8 38 ff ff ff       	call   c000472c <queue_wait>
c00047f4:	83 c4 10             	add    $0x10,%esp
c00047f7:	8b 45 08             	mov    0x8(%ebp),%eax
c00047fa:	83 ec 0c             	sub    $0xc,%esp
c00047fd:	50                   	push   %eax
c00047fe:	e8 6e f9 ff ff       	call   c0004171 <lock_release>
c0004803:	83 c4 10             	add    $0x10,%esp
c0004806:	83 ec 0c             	sub    $0xc,%esp
c0004809:	ff 75 08             	pushl  0x8(%ebp)
c000480c:	e8 f4 fe ff ff       	call   c0004705 <is_queue_empty>
c0004811:	83 c4 10             	add    $0x10,%esp
c0004814:	85 c0                	test   %eax,%eax
c0004816:	75 be                	jne    c00047d6 <queue_getchar+0x40>
c0004818:	8b 45 08             	mov    0x8(%ebp),%eax
c000481b:	8b 40 50             	mov    0x50(%eax),%eax
c000481e:	8b 55 08             	mov    0x8(%ebp),%edx
c0004821:	0f b6 44 02 0c       	movzbl 0xc(%edx,%eax,1),%eax
c0004826:	88 45 f7             	mov    %al,-0x9(%ebp)
c0004829:	8b 45 08             	mov    0x8(%ebp),%eax
c000482c:	8b 40 50             	mov    0x50(%eax),%eax
c000482f:	83 ec 0c             	sub    $0xc,%esp
c0004832:	50                   	push   %eax
c0004833:	e8 73 fe ff ff       	call   c00046ab <next_pos>
c0004838:	83 c4 10             	add    $0x10,%esp
c000483b:	8b 55 08             	mov    0x8(%ebp),%edx
c000483e:	89 42 50             	mov    %eax,0x50(%edx)
c0004841:	8b 45 08             	mov    0x8(%ebp),%eax
c0004844:	8b 40 04             	mov    0x4(%eax),%eax
c0004847:	85 c0                	test   %eax,%eax
c0004849:	74 12                	je     c000485d <queue_getchar+0xc7>
c000484b:	8b 45 08             	mov    0x8(%ebp),%eax
c000484e:	83 c0 04             	add    $0x4,%eax
c0004851:	83 ec 0c             	sub    $0xc,%esp
c0004854:	50                   	push   %eax
c0004855:	e8 05 ff ff ff       	call   c000475f <wakeup>
c000485a:	83 c4 10             	add    $0x10,%esp
c000485d:	0f b6 45 f7          	movzbl -0x9(%ebp),%eax
c0004861:	8b 5d fc             	mov    -0x4(%ebp),%ebx
c0004864:	c9                   	leave  
c0004865:	c3                   	ret    

c0004866 <queue_putchar>:
c0004866:	f3 0f 1e fb          	endbr32 
c000486a:	55                   	push   %ebp
c000486b:	89 e5                	mov    %esp,%ebp
c000486d:	53                   	push   %ebx
c000486e:	83 ec 14             	sub    $0x14,%esp
c0004871:	e8 02 ce ff ff       	call   c0001678 <__x86.get_pc_thunk.bx>
c0004876:	81 c3 8a 37 00 00    	add    $0x378a,%ebx
c000487c:	8b 45 0c             	mov    0xc(%ebp),%eax
c000487f:	88 45 f4             	mov    %al,-0xc(%ebp)
c0004882:	e8 e7 d2 ff ff       	call   c0001b6e <intr_get_status>
c0004887:	85 c0                	test   %eax,%eax
c0004889:	74 51                	je     c00048dc <queue_putchar+0x76>
c000488b:	8d 83 40 da ff ff    	lea    -0x25c0(%ebx),%eax
c0004891:	50                   	push   %eax
c0004892:	8d 83 80 da ff ff    	lea    -0x2580(%ebx),%eax
c0004898:	50                   	push   %eax
c0004899:	6a 3c                	push   $0x3c
c000489b:	8d 83 5e da ff ff    	lea    -0x25a2(%ebx),%eax
c00048a1:	50                   	push   %eax
c00048a2:	e8 01 ec ff ff       	call   c00034a8 <panic_spin>
c00048a7:	83 c4 10             	add    $0x10,%esp
c00048aa:	eb 30                	jmp    c00048dc <queue_putchar+0x76>
c00048ac:	8b 45 08             	mov    0x8(%ebp),%eax
c00048af:	83 ec 0c             	sub    $0xc,%esp
c00048b2:	50                   	push   %eax
c00048b3:	e8 2d f8 ff ff       	call   c00040e5 <lock_acquire>
c00048b8:	83 c4 10             	add    $0x10,%esp
c00048bb:	8b 45 08             	mov    0x8(%ebp),%eax
c00048be:	83 c0 04             	add    $0x4,%eax
c00048c1:	83 ec 0c             	sub    $0xc,%esp
c00048c4:	50                   	push   %eax
c00048c5:	e8 62 fe ff ff       	call   c000472c <queue_wait>
c00048ca:	83 c4 10             	add    $0x10,%esp
c00048cd:	8b 45 08             	mov    0x8(%ebp),%eax
c00048d0:	83 ec 0c             	sub    $0xc,%esp
c00048d3:	50                   	push   %eax
c00048d4:	e8 98 f8 ff ff       	call   c0004171 <lock_release>
c00048d9:	83 c4 10             	add    $0x10,%esp
c00048dc:	83 ec 0c             	sub    $0xc,%esp
c00048df:	ff 75 08             	pushl  0x8(%ebp)
c00048e2:	e8 ee fd ff ff       	call   c00046d5 <is_queue_full>
c00048e7:	83 c4 10             	add    $0x10,%esp
c00048ea:	85 c0                	test   %eax,%eax
c00048ec:	75 be                	jne    c00048ac <queue_putchar+0x46>
c00048ee:	8b 45 08             	mov    0x8(%ebp),%eax
c00048f1:	8b 40 4c             	mov    0x4c(%eax),%eax
c00048f4:	8b 55 08             	mov    0x8(%ebp),%edx
c00048f7:	0f b6 4d f4          	movzbl -0xc(%ebp),%ecx
c00048fb:	88 4c 02 0c          	mov    %cl,0xc(%edx,%eax,1)
c00048ff:	8b 45 08             	mov    0x8(%ebp),%eax
c0004902:	8b 40 4c             	mov    0x4c(%eax),%eax
c0004905:	83 ec 0c             	sub    $0xc,%esp
c0004908:	50                   	push   %eax
c0004909:	e8 9d fd ff ff       	call   c00046ab <next_pos>
c000490e:	83 c4 10             	add    $0x10,%esp
c0004911:	8b 55 08             	mov    0x8(%ebp),%edx
c0004914:	89 42 4c             	mov    %eax,0x4c(%edx)
c0004917:	8b 45 08             	mov    0x8(%ebp),%eax
c000491a:	8b 40 08             	mov    0x8(%eax),%eax
c000491d:	85 c0                	test   %eax,%eax
c000491f:	74 12                	je     c0004933 <queue_putchar+0xcd>
c0004921:	8b 45 08             	mov    0x8(%ebp),%eax
c0004924:	83 c0 08             	add    $0x8,%eax
c0004927:	83 ec 0c             	sub    $0xc,%esp
c000492a:	50                   	push   %eax
c000492b:	e8 2f fe ff ff       	call   c000475f <wakeup>
c0004930:	83 c4 10             	add    $0x10,%esp
c0004933:	90                   	nop
c0004934:	8b 5d fc             	mov    -0x4(%ebp),%ebx
c0004937:	c9                   	leave  
c0004938:	c3                   	ret    

c0004939 <update_tss_esp>:
c0004939:	f3 0f 1e fb          	endbr32 
c000493d:	55                   	push   %ebp
c000493e:	89 e5                	mov    %esp,%ebp
c0004940:	e8 2f cd ff ff       	call   c0001674 <__x86.get_pc_thunk.ax>
c0004945:	05 bb 36 00 00       	add    $0x36bb,%eax
c000494a:	8b 55 08             	mov    0x8(%ebp),%edx
c000494d:	81 c2 00 10 00 00    	add    $0x1000,%edx
c0004953:	89 90 64 03 00 00    	mov    %edx,0x364(%eax)
c0004959:	90                   	nop
c000495a:	5d                   	pop    %ebp
c000495b:	c3                   	ret    

c000495c <make_gdt_desc>:
c000495c:	f3 0f 1e fb          	endbr32 
c0004960:	55                   	push   %ebp
c0004961:	89 e5                	mov    %esp,%ebp
c0004963:	83 ec 18             	sub    $0x18,%esp
c0004966:	e8 09 cd ff ff       	call   c0001674 <__x86.get_pc_thunk.ax>
c000496b:	05 95 36 00 00       	add    $0x3695,%eax
c0004970:	8b 55 14             	mov    0x14(%ebp),%edx
c0004973:	8b 45 18             	mov    0x18(%ebp),%eax
c0004976:	88 55 ec             	mov    %dl,-0x14(%ebp)
c0004979:	88 45 e8             	mov    %al,-0x18(%ebp)
c000497c:	8b 45 0c             	mov    0xc(%ebp),%eax
c000497f:	89 45 fc             	mov    %eax,-0x4(%ebp)
c0004982:	8b 45 10             	mov    0x10(%ebp),%eax
c0004985:	66 89 45 f4          	mov    %ax,-0xc(%ebp)
c0004989:	8b 45 fc             	mov    -0x4(%ebp),%eax
c000498c:	66 89 45 f6          	mov    %ax,-0xa(%ebp)
c0004990:	8b 45 fc             	mov    -0x4(%ebp),%eax
c0004993:	c1 e8 10             	shr    $0x10,%eax
c0004996:	88 45 f8             	mov    %al,-0x8(%ebp)
c0004999:	0f b6 45 ec          	movzbl -0x14(%ebp),%eax
c000499d:	88 45 f9             	mov    %al,-0x7(%ebp)
c00049a0:	8b 45 10             	mov    0x10(%ebp),%eax
c00049a3:	c1 e8 10             	shr    $0x10,%eax
c00049a6:	83 e0 0f             	and    $0xf,%eax
c00049a9:	89 c2                	mov    %eax,%edx
c00049ab:	0f b6 45 e8          	movzbl -0x18(%ebp),%eax
c00049af:	01 d0                	add    %edx,%eax
c00049b1:	88 45 fa             	mov    %al,-0x6(%ebp)
c00049b4:	8b 45 fc             	mov    -0x4(%ebp),%eax
c00049b7:	c1 e8 18             	shr    $0x18,%eax
c00049ba:	88 45 fb             	mov    %al,-0x5(%ebp)
c00049bd:	8b 4d 08             	mov    0x8(%ebp),%ecx
c00049c0:	8b 45 f4             	mov    -0xc(%ebp),%eax
c00049c3:	8b 55 f8             	mov    -0x8(%ebp),%edx
c00049c6:	89 01                	mov    %eax,(%ecx)
c00049c8:	89 51 04             	mov    %edx,0x4(%ecx)
c00049cb:	8b 45 08             	mov    0x8(%ebp),%eax
c00049ce:	c9                   	leave  
c00049cf:	c2 04 00             	ret    $0x4

c00049d2 <tss_init>:
c00049d2:	f3 0f 1e fb          	endbr32 
c00049d6:	55                   	push   %ebp
c00049d7:	89 e5                	mov    %esp,%ebp
c00049d9:	56                   	push   %esi
c00049da:	53                   	push   %ebx
c00049db:	83 ec 20             	sub    $0x20,%esp
c00049de:	e8 95 cc ff ff       	call   c0001678 <__x86.get_pc_thunk.bx>
c00049e3:	81 c3 1d 36 00 00    	add    $0x361d,%ebx
c00049e9:	83 ec 0c             	sub    $0xc,%esp
c00049ec:	8d 83 8e da ff ff    	lea    -0x2572(%ebx),%eax
c00049f2:	50                   	push   %eax
c00049f3:	e8 cb d9 ff ff       	call   c00023c3 <put_str>
c00049f8:	83 c4 10             	add    $0x10,%esp
c00049fb:	c7 45 f4 6c 00 00 00 	movl   $0x6c,-0xc(%ebp)
c0004a02:	83 ec 04             	sub    $0x4,%esp
c0004a05:	ff 75 f4             	pushl  -0xc(%ebp)
c0004a08:	6a 00                	push   $0x0
c0004a0a:	8d 83 60 03 00 00    	lea    0x360(%ebx),%eax
c0004a10:	50                   	push   %eax
c0004a11:	e8 eb e5 ff ff       	call   c0003001 <memset>
c0004a16:	83 c4 10             	add    $0x10,%esp
c0004a19:	c7 83 68 03 00 00 10 	movl   $0x10,0x368(%ebx)
c0004a20:	00 00 00 
c0004a23:	8b 45 f4             	mov    -0xc(%ebp),%eax
c0004a26:	89 83 c8 03 00 00    	mov    %eax,0x3c8(%ebx)
c0004a2c:	8b 45 f4             	mov    -0xc(%ebp),%eax
c0004a2f:	8d 50 ff             	lea    -0x1(%eax),%edx
c0004a32:	be 20 09 00 c0       	mov    $0xc0000920,%esi
c0004a37:	8d 45 e0             	lea    -0x20(%ebp),%eax
c0004a3a:	83 ec 0c             	sub    $0xc,%esp
c0004a3d:	68 80 00 00 00       	push   $0x80
c0004a42:	68 89 00 00 00       	push   $0x89
c0004a47:	52                   	push   %edx
c0004a48:	8d 93 60 03 00 00    	lea    0x360(%ebx),%edx
c0004a4e:	52                   	push   %edx
c0004a4f:	50                   	push   %eax
c0004a50:	e8 07 ff ff ff       	call   c000495c <make_gdt_desc>
c0004a55:	83 c4 1c             	add    $0x1c,%esp
c0004a58:	8b 45 e0             	mov    -0x20(%ebp),%eax
c0004a5b:	8b 55 e4             	mov    -0x1c(%ebp),%edx
c0004a5e:	89 06                	mov    %eax,(%esi)
c0004a60:	89 56 04             	mov    %edx,0x4(%esi)
c0004a63:	be 28 09 00 c0       	mov    $0xc0000928,%esi
c0004a68:	8d 45 e0             	lea    -0x20(%ebp),%eax
c0004a6b:	83 ec 0c             	sub    $0xc,%esp
c0004a6e:	68 c0 00 00 00       	push   $0xc0
c0004a73:	68 f8 00 00 00       	push   $0xf8
c0004a78:	68 ff ff 0f 00       	push   $0xfffff
c0004a7d:	6a 00                	push   $0x0
c0004a7f:	50                   	push   %eax
c0004a80:	e8 d7 fe ff ff       	call   c000495c <make_gdt_desc>
c0004a85:	83 c4 1c             	add    $0x1c,%esp
c0004a88:	8b 45 e0             	mov    -0x20(%ebp),%eax
c0004a8b:	8b 55 e4             	mov    -0x1c(%ebp),%edx
c0004a8e:	89 06                	mov    %eax,(%esi)
c0004a90:	89 56 04             	mov    %edx,0x4(%esi)
c0004a93:	be 30 09 00 c0       	mov    $0xc0000930,%esi
c0004a98:	8d 45 e0             	lea    -0x20(%ebp),%eax
c0004a9b:	83 ec 0c             	sub    $0xc,%esp
c0004a9e:	68 c0 00 00 00       	push   $0xc0
c0004aa3:	68 f2 00 00 00       	push   $0xf2
c0004aa8:	68 ff ff 0f 00       	push   $0xfffff
c0004aad:	6a 00                	push   $0x0
c0004aaf:	50                   	push   %eax
c0004ab0:	e8 a7 fe ff ff       	call   c000495c <make_gdt_desc>
c0004ab5:	83 c4 1c             	add    $0x1c,%esp
c0004ab8:	8b 45 e0             	mov    -0x20(%ebp),%eax
c0004abb:	8b 55 e4             	mov    -0x1c(%ebp),%edx
c0004abe:	89 06                	mov    %eax,(%esi)
c0004ac0:	89 56 04             	mov    %edx,0x4(%esi)
c0004ac3:	c7 45 e8 37 00 00 09 	movl   $0x9000037,-0x18(%ebp)
c0004aca:	c7 45 ec 00 c0 00 00 	movl   $0xc000,-0x14(%ebp)
c0004ad1:	0f 01 55 e8          	lgdtl  -0x18(%ebp)
c0004ad5:	b8 20 00 00 00       	mov    $0x20,%eax
c0004ada:	0f 00 d8             	ltr    %ax
c0004add:	83 ec 0c             	sub    $0xc,%esp
c0004ae0:	8d 83 9e da ff ff    	lea    -0x2562(%ebx),%eax
c0004ae6:	50                   	push   %eax
c0004ae7:	e8 d7 d8 ff ff       	call   c00023c3 <put_str>
c0004aec:	83 c4 10             	add    $0x10,%esp
c0004aef:	90                   	nop
c0004af0:	8d 65 f8             	lea    -0x8(%ebp),%esp
c0004af3:	5b                   	pop    %ebx
c0004af4:	5e                   	pop    %esi
c0004af5:	5d                   	pop    %ebp
c0004af6:	c3                   	ret    

c0004af7 <start_process>:
c0004af7:	f3 0f 1e fb          	endbr32 
c0004afb:	55                   	push   %ebp
c0004afc:	89 e5                	mov    %esp,%ebp
c0004afe:	53                   	push   %ebx
c0004aff:	83 ec 14             	sub    $0x14,%esp
c0004b02:	e8 71 cb ff ff       	call   c0001678 <__x86.get_pc_thunk.bx>
c0004b07:	81 c3 f9 34 00 00    	add    $0x34f9,%ebx
c0004b0d:	8b 45 08             	mov    0x8(%ebp),%eax
c0004b10:	89 45 f4             	mov    %eax,-0xc(%ebp)
c0004b13:	e8 74 ea ff ff       	call   c000358c <running_thread>
c0004b18:	89 45 f0             	mov    %eax,-0x10(%ebp)
c0004b1b:	8b 45 f0             	mov    -0x10(%ebp),%eax
c0004b1e:	8b 00                	mov    (%eax),%eax
c0004b20:	8d 90 80 00 00 00    	lea    0x80(%eax),%edx
c0004b26:	8b 45 f0             	mov    -0x10(%ebp),%eax
c0004b29:	89 10                	mov    %edx,(%eax)
c0004b2b:	8b 45 f0             	mov    -0x10(%ebp),%eax
c0004b2e:	8b 00                	mov    (%eax),%eax
c0004b30:	89 45 ec             	mov    %eax,-0x14(%ebp)
c0004b33:	8b 45 ec             	mov    -0x14(%ebp),%eax
c0004b36:	c7 40 10 00 00 00 00 	movl   $0x0,0x10(%eax)
c0004b3d:	8b 45 ec             	mov    -0x14(%ebp),%eax
c0004b40:	8b 50 10             	mov    0x10(%eax),%edx
c0004b43:	8b 45 ec             	mov    -0x14(%ebp),%eax
c0004b46:	89 50 0c             	mov    %edx,0xc(%eax)
c0004b49:	8b 45 ec             	mov    -0x14(%ebp),%eax
c0004b4c:	8b 50 0c             	mov    0xc(%eax),%edx
c0004b4f:	8b 45 ec             	mov    -0x14(%ebp),%eax
c0004b52:	89 50 08             	mov    %edx,0x8(%eax)
c0004b55:	8b 45 ec             	mov    -0x14(%ebp),%eax
c0004b58:	8b 50 08             	mov    0x8(%eax),%edx
c0004b5b:	8b 45 ec             	mov    -0x14(%ebp),%eax
c0004b5e:	89 50 04             	mov    %edx,0x4(%eax)
c0004b61:	8b 45 ec             	mov    -0x14(%ebp),%eax
c0004b64:	c7 40 24 00 00 00 00 	movl   $0x0,0x24(%eax)
c0004b6b:	8b 45 ec             	mov    -0x14(%ebp),%eax
c0004b6e:	8b 50 24             	mov    0x24(%eax),%edx
c0004b71:	8b 45 ec             	mov    -0x14(%ebp),%eax
c0004b74:	89 50 20             	mov    %edx,0x20(%eax)
c0004b77:	8b 45 ec             	mov    -0x14(%ebp),%eax
c0004b7a:	8b 50 20             	mov    0x20(%eax),%edx
c0004b7d:	8b 45 ec             	mov    -0x14(%ebp),%eax
c0004b80:	89 50 1c             	mov    %edx,0x1c(%eax)
c0004b83:	8b 45 ec             	mov    -0x14(%ebp),%eax
c0004b86:	8b 50 1c             	mov    0x1c(%eax),%edx
c0004b89:	8b 45 ec             	mov    -0x14(%ebp),%eax
c0004b8c:	89 50 18             	mov    %edx,0x18(%eax)
c0004b8f:	8b 45 ec             	mov    -0x14(%ebp),%eax
c0004b92:	8b 50 18             	mov    0x18(%eax),%edx
c0004b95:	8b 45 ec             	mov    -0x14(%ebp),%eax
c0004b98:	89 50 14             	mov    %edx,0x14(%eax)
c0004b9b:	8b 45 ec             	mov    -0x14(%ebp),%eax
c0004b9e:	c7 40 28 33 00 00 00 	movl   $0x33,0x28(%eax)
c0004ba5:	8b 45 ec             	mov    -0x14(%ebp),%eax
c0004ba8:	8b 50 28             	mov    0x28(%eax),%edx
c0004bab:	8b 45 ec             	mov    -0x14(%ebp),%eax
c0004bae:	89 50 2c             	mov    %edx,0x2c(%eax)
c0004bb1:	8b 45 ec             	mov    -0x14(%ebp),%eax
c0004bb4:	8b 50 2c             	mov    0x2c(%eax),%edx
c0004bb7:	8b 45 ec             	mov    -0x14(%ebp),%eax
c0004bba:	89 50 30             	mov    %edx,0x30(%eax)
c0004bbd:	8b 55 f4             	mov    -0xc(%ebp),%edx
c0004bc0:	8b 45 ec             	mov    -0x14(%ebp),%eax
c0004bc3:	89 50 38             	mov    %edx,0x38(%eax)
c0004bc6:	8b 45 ec             	mov    -0x14(%ebp),%eax
c0004bc9:	c7 40 3c 2b 00 00 00 	movl   $0x2b,0x3c(%eax)
c0004bd0:	8b 45 ec             	mov    -0x14(%ebp),%eax
c0004bd3:	c7 40 40 02 02 00 00 	movl   $0x202,0x40(%eax)
c0004bda:	83 ec 08             	sub    $0x8,%esp
c0004bdd:	68 00 f0 ff bf       	push   $0xbffff000
c0004be2:	6a 02                	push   $0x2
c0004be4:	e8 21 e2 ff ff       	call   c0002e0a <get_a_page>
c0004be9:	83 c4 10             	add    $0x10,%esp
c0004bec:	05 00 10 00 00       	add    $0x1000,%eax
c0004bf1:	89 c2                	mov    %eax,%edx
c0004bf3:	8b 45 ec             	mov    -0x14(%ebp),%eax
c0004bf6:	89 50 44             	mov    %edx,0x44(%eax)
c0004bf9:	8b 45 ec             	mov    -0x14(%ebp),%eax
c0004bfc:	c7 40 48 33 00 00 00 	movl   $0x33,0x48(%eax)
c0004c03:	8b 65 ec             	mov    -0x14(%ebp),%esp
c0004c06:	e9 05 d2 ff ff       	jmp    c0001e10 <intr_exit>
c0004c0b:	90                   	nop
c0004c0c:	8b 5d fc             	mov    -0x4(%ebp),%ebx
c0004c0f:	c9                   	leave  
c0004c10:	c3                   	ret    

c0004c11 <page_dir_activate>:
c0004c11:	f3 0f 1e fb          	endbr32 
c0004c15:	55                   	push   %ebp
c0004c16:	89 e5                	mov    %esp,%ebp
c0004c18:	53                   	push   %ebx
c0004c19:	83 ec 14             	sub    $0x14,%esp
c0004c1c:	e8 53 ca ff ff       	call   c0001674 <__x86.get_pc_thunk.ax>
c0004c21:	05 df 33 00 00       	add    $0x33df,%eax
c0004c26:	c7 45 f4 00 00 10 00 	movl   $0x100000,-0xc(%ebp)
c0004c2d:	8b 55 08             	mov    0x8(%ebp),%edx
c0004c30:	8b 52 30             	mov    0x30(%edx),%edx
c0004c33:	85 d2                	test   %edx,%edx
c0004c35:	74 17                	je     c0004c4e <page_dir_activate+0x3d>
c0004c37:	8b 55 08             	mov    0x8(%ebp),%edx
c0004c3a:	8b 52 30             	mov    0x30(%edx),%edx
c0004c3d:	83 ec 0c             	sub    $0xc,%esp
c0004c40:	52                   	push   %edx
c0004c41:	89 c3                	mov    %eax,%ebx
c0004c43:	e8 fd e2 ff ff       	call   c0002f45 <addr_v2p>
c0004c48:	83 c4 10             	add    $0x10,%esp
c0004c4b:	89 45 f4             	mov    %eax,-0xc(%ebp)
c0004c4e:	8b 45 f4             	mov    -0xc(%ebp),%eax
c0004c51:	0f 22 d8             	mov    %eax,%cr3
c0004c54:	90                   	nop
c0004c55:	8b 5d fc             	mov    -0x4(%ebp),%ebx
c0004c58:	c9                   	leave  
c0004c59:	c3                   	ret    

c0004c5a <process_activate>:
c0004c5a:	f3 0f 1e fb          	endbr32 
c0004c5e:	55                   	push   %ebp
c0004c5f:	89 e5                	mov    %esp,%ebp
c0004c61:	53                   	push   %ebx
c0004c62:	83 ec 04             	sub    $0x4,%esp
c0004c65:	e8 0e ca ff ff       	call   c0001678 <__x86.get_pc_thunk.bx>
c0004c6a:	81 c3 96 33 00 00    	add    $0x3396,%ebx
c0004c70:	83 7d 08 00          	cmpl   $0x0,0x8(%ebp)
c0004c74:	75 1f                	jne    c0004c95 <process_activate+0x3b>
c0004c76:	8d 83 b8 da ff ff    	lea    -0x2548(%ebx),%eax
c0004c7c:	50                   	push   %eax
c0004c7d:	8d 83 70 db ff ff    	lea    -0x2490(%ebx),%eax
c0004c83:	50                   	push   %eax
c0004c84:	6a 3a                	push   $0x3a
c0004c86:	8d 83 c8 da ff ff    	lea    -0x2538(%ebx),%eax
c0004c8c:	50                   	push   %eax
c0004c8d:	e8 16 e8 ff ff       	call   c00034a8 <panic_spin>
c0004c92:	83 c4 10             	add    $0x10,%esp
c0004c95:	83 ec 0c             	sub    $0xc,%esp
c0004c98:	ff 75 08             	pushl  0x8(%ebp)
c0004c9b:	e8 71 ff ff ff       	call   c0004c11 <page_dir_activate>
c0004ca0:	83 c4 10             	add    $0x10,%esp
c0004ca3:	8b 45 08             	mov    0x8(%ebp),%eax
c0004ca6:	8b 40 30             	mov    0x30(%eax),%eax
c0004ca9:	85 c0                	test   %eax,%eax
c0004cab:	74 0e                	je     c0004cbb <process_activate+0x61>
c0004cad:	83 ec 0c             	sub    $0xc,%esp
c0004cb0:	ff 75 08             	pushl  0x8(%ebp)
c0004cb3:	e8 81 fc ff ff       	call   c0004939 <update_tss_esp>
c0004cb8:	83 c4 10             	add    $0x10,%esp
c0004cbb:	90                   	nop
c0004cbc:	8b 5d fc             	mov    -0x4(%ebp),%ebx
c0004cbf:	c9                   	leave  
c0004cc0:	c3                   	ret    

c0004cc1 <create_page_dir>:
c0004cc1:	f3 0f 1e fb          	endbr32 
c0004cc5:	55                   	push   %ebp
c0004cc6:	89 e5                	mov    %esp,%ebp
c0004cc8:	53                   	push   %ebx
c0004cc9:	83 ec 14             	sub    $0x14,%esp
c0004ccc:	e8 a7 c9 ff ff       	call   c0001678 <__x86.get_pc_thunk.bx>
c0004cd1:	81 c3 2f 33 00 00    	add    $0x332f,%ebx
c0004cd7:	83 ec 0c             	sub    $0xc,%esp
c0004cda:	6a 01                	push   $0x1
c0004cdc:	e8 69 e0 ff ff       	call   c0002d4a <get_kernel_pages>
c0004ce1:	83 c4 10             	add    $0x10,%esp
c0004ce4:	89 45 f4             	mov    %eax,-0xc(%ebp)
c0004ce7:	83 7d f4 00          	cmpl   $0x0,-0xc(%ebp)
c0004ceb:	75 26                	jne    c0004d13 <create_page_dir+0x52>
c0004ced:	8d 83 dc da ff ff    	lea    -0x2524(%ebx),%eax
c0004cf3:	50                   	push   %eax
c0004cf4:	8d 83 84 db ff ff    	lea    -0x247c(%ebx),%eax
c0004cfa:	50                   	push   %eax
c0004cfb:	6a 49                	push   $0x49
c0004cfd:	8d 83 c8 da ff ff    	lea    -0x2538(%ebx),%eax
c0004d03:	50                   	push   %eax
c0004d04:	e8 9f e7 ff ff       	call   c00034a8 <panic_spin>
c0004d09:	83 c4 10             	add    $0x10,%esp
c0004d0c:	b8 00 00 00 00       	mov    $0x0,%eax
c0004d11:	eb 43                	jmp    c0004d56 <create_page_dir+0x95>
c0004d13:	8b 45 f4             	mov    -0xc(%ebp),%eax
c0004d16:	05 64 0a 00 00       	add    $0xa64,%eax
c0004d1b:	83 ec 04             	sub    $0x4,%esp
c0004d1e:	68 00 04 00 00       	push   $0x400
c0004d23:	68 64 fa ff ff       	push   $0xfffffa64
c0004d28:	50                   	push   %eax
c0004d29:	e8 40 e3 ff ff       	call   c000306e <memcpy>
c0004d2e:	83 c4 10             	add    $0x10,%esp
c0004d31:	8b 45 f4             	mov    -0xc(%ebp),%eax
c0004d34:	83 ec 0c             	sub    $0xc,%esp
c0004d37:	50                   	push   %eax
c0004d38:	e8 08 e2 ff ff       	call   c0002f45 <addr_v2p>
c0004d3d:	83 c4 10             	add    $0x10,%esp
c0004d40:	89 45 f0             	mov    %eax,-0x10(%ebp)
c0004d43:	8b 45 f4             	mov    -0xc(%ebp),%eax
c0004d46:	05 fc 0f 00 00       	add    $0xffc,%eax
c0004d4b:	8b 55 f0             	mov    -0x10(%ebp),%edx
c0004d4e:	83 ca 07             	or     $0x7,%edx
c0004d51:	89 10                	mov    %edx,(%eax)
c0004d53:	8b 45 f4             	mov    -0xc(%ebp),%eax
c0004d56:	8b 5d fc             	mov    -0x4(%ebp),%ebx
c0004d59:	c9                   	leave  
c0004d5a:	c3                   	ret    

c0004d5b <create_user_vaddr_bitmap>:
c0004d5b:	f3 0f 1e fb          	endbr32 
c0004d5f:	55                   	push   %ebp
c0004d60:	89 e5                	mov    %esp,%ebp
c0004d62:	53                   	push   %ebx
c0004d63:	83 ec 14             	sub    $0x14,%esp
c0004d66:	e8 0d c9 ff ff       	call   c0001678 <__x86.get_pc_thunk.bx>
c0004d6b:	81 c3 95 32 00 00    	add    $0x3295,%ebx
c0004d71:	8b 45 08             	mov    0x8(%ebp),%eax
c0004d74:	c7 40 3c 00 80 04 08 	movl   $0x8048000,0x3c(%eax)
c0004d7b:	c7 45 f4 17 00 00 00 	movl   $0x17,-0xc(%ebp)
c0004d82:	83 ec 0c             	sub    $0xc,%esp
c0004d85:	ff 75 f4             	pushl  -0xc(%ebp)
c0004d88:	e8 bd df ff ff       	call   c0002d4a <get_kernel_pages>
c0004d8d:	83 c4 10             	add    $0x10,%esp
c0004d90:	8b 55 08             	mov    0x8(%ebp),%edx
c0004d93:	89 42 38             	mov    %eax,0x38(%edx)
c0004d96:	8b 45 08             	mov    0x8(%ebp),%eax
c0004d99:	c7 40 34 f7 6f 01 00 	movl   $0x16ff7,0x34(%eax)
c0004da0:	8b 45 08             	mov    0x8(%ebp),%eax
c0004da3:	83 c0 34             	add    $0x34,%eax
c0004da6:	83 ec 0c             	sub    $0xc,%esp
c0004da9:	50                   	push   %eax
c0004daa:	e8 ff d6 ff ff       	call   c00024ae <bitmap_init>
c0004daf:	83 c4 10             	add    $0x10,%esp
c0004db2:	90                   	nop
c0004db3:	8b 5d fc             	mov    -0x4(%ebp),%ebx
c0004db6:	c9                   	leave  
c0004db7:	c3                   	ret    

c0004db8 <process_execute>:
c0004db8:	f3 0f 1e fb          	endbr32 
c0004dbc:	55                   	push   %ebp
c0004dbd:	89 e5                	mov    %esp,%ebp
c0004dbf:	53                   	push   %ebx
c0004dc0:	83 ec 14             	sub    $0x14,%esp
c0004dc3:	e8 b0 c8 ff ff       	call   c0001678 <__x86.get_pc_thunk.bx>
c0004dc8:	81 c3 38 32 00 00    	add    $0x3238,%ebx
c0004dce:	83 ec 0c             	sub    $0xc,%esp
c0004dd1:	6a 01                	push   $0x1
c0004dd3:	e8 72 df ff ff       	call   c0002d4a <get_kernel_pages>
c0004dd8:	83 c4 10             	add    $0x10,%esp
c0004ddb:	89 45 f4             	mov    %eax,-0xc(%ebp)
c0004dde:	83 ec 04             	sub    $0x4,%esp
c0004de1:	6a 1f                	push   $0x1f
c0004de3:	ff 75 0c             	pushl  0xc(%ebp)
c0004de6:	ff 75 f4             	pushl  -0xc(%ebp)
c0004de9:	e8 79 e8 ff ff       	call   c0003667 <init_thread>
c0004dee:	83 c4 10             	add    $0x10,%esp
c0004df1:	83 ec 0c             	sub    $0xc,%esp
c0004df4:	ff 75 f4             	pushl  -0xc(%ebp)
c0004df7:	e8 5f ff ff ff       	call   c0004d5b <create_user_vaddr_bitmap>
c0004dfc:	83 c4 10             	add    $0x10,%esp
c0004dff:	83 ec 04             	sub    $0x4,%esp
c0004e02:	ff 75 08             	pushl  0x8(%ebp)
c0004e05:	8d 83 f7 ca ff ff    	lea    -0x3509(%ebx),%eax
c0004e0b:	50                   	push   %eax
c0004e0c:	ff 75 f4             	pushl  -0xc(%ebp)
c0004e0f:	e8 cb e7 ff ff       	call   c00035df <thread_create>
c0004e14:	83 c4 10             	add    $0x10,%esp
c0004e17:	e8 a5 fe ff ff       	call   c0004cc1 <create_page_dir>
c0004e1c:	8b 55 f4             	mov    -0xc(%ebp),%edx
c0004e1f:	89 42 30             	mov    %eax,0x30(%edx)
c0004e22:	e8 e4 cc ff ff       	call   c0001b0b <intr_disable>
c0004e27:	89 45 f0             	mov    %eax,-0x10(%ebp)
c0004e2a:	8b 45 f4             	mov    -0xc(%ebp),%eax
c0004e2d:	83 c0 20             	add    $0x20,%eax
c0004e30:	83 ec 08             	sub    $0x8,%esp
c0004e33:	50                   	push   %eax
c0004e34:	c7 c0 cc 83 00 c0    	mov    $0xc00083cc,%eax
c0004e3a:	50                   	push   %eax
c0004e3b:	e8 5e ef ff ff       	call   c0003d9e <list_find>
c0004e40:	83 c4 10             	add    $0x10,%esp
c0004e43:	85 c0                	test   %eax,%eax
c0004e45:	74 1f                	je     c0004e66 <process_execute+0xae>
c0004e47:	8d 83 08 db ff ff    	lea    -0x24f8(%ebx),%eax
c0004e4d:	50                   	push   %eax
c0004e4e:	8d 83 94 db ff ff    	lea    -0x246c(%ebx),%eax
c0004e54:	50                   	push   %eax
c0004e55:	6a 75                	push   $0x75
c0004e57:	8d 83 c8 da ff ff    	lea    -0x2538(%ebx),%eax
c0004e5d:	50                   	push   %eax
c0004e5e:	e8 45 e6 ff ff       	call   c00034a8 <panic_spin>
c0004e63:	83 c4 10             	add    $0x10,%esp
c0004e66:	8b 45 f4             	mov    -0xc(%ebp),%eax
c0004e69:	83 c0 20             	add    $0x20,%eax
c0004e6c:	83 ec 08             	sub    $0x8,%esp
c0004e6f:	50                   	push   %eax
c0004e70:	c7 c0 cc 83 00 c0    	mov    $0xc00083cc,%eax
c0004e76:	50                   	push   %eax
c0004e77:	e8 79 ee ff ff       	call   c0003cf5 <list_append>
c0004e7c:	83 c4 10             	add    $0x10,%esp
c0004e7f:	8b 45 f4             	mov    -0xc(%ebp),%eax
c0004e82:	83 c0 28             	add    $0x28,%eax
c0004e85:	83 ec 08             	sub    $0x8,%esp
c0004e88:	50                   	push   %eax
c0004e89:	c7 c0 dc 83 00 c0    	mov    $0xc00083dc,%eax
c0004e8f:	50                   	push   %eax
c0004e90:	e8 09 ef ff ff       	call   c0003d9e <list_find>
c0004e95:	83 c4 10             	add    $0x10,%esp
c0004e98:	85 c0                	test   %eax,%eax
c0004e9a:	74 1f                	je     c0004ebb <process_execute+0x103>
c0004e9c:	8d 83 3c db ff ff    	lea    -0x24c4(%ebx),%eax
c0004ea2:	50                   	push   %eax
c0004ea3:	8d 83 94 db ff ff    	lea    -0x246c(%ebx),%eax
c0004ea9:	50                   	push   %eax
c0004eaa:	6a 78                	push   $0x78
c0004eac:	8d 83 c8 da ff ff    	lea    -0x2538(%ebx),%eax
c0004eb2:	50                   	push   %eax
c0004eb3:	e8 f0 e5 ff ff       	call   c00034a8 <panic_spin>
c0004eb8:	83 c4 10             	add    $0x10,%esp
c0004ebb:	8b 45 f4             	mov    -0xc(%ebp),%eax
c0004ebe:	83 c0 28             	add    $0x28,%eax
c0004ec1:	83 ec 08             	sub    $0x8,%esp
c0004ec4:	50                   	push   %eax
c0004ec5:	c7 c0 dc 83 00 c0    	mov    $0xc00083dc,%eax
c0004ecb:	50                   	push   %eax
c0004ecc:	e8 24 ee ff ff       	call   c0003cf5 <list_append>
c0004ed1:	83 c4 10             	add    $0x10,%esp
c0004ed4:	83 ec 0c             	sub    $0xc,%esp
c0004ed7:	ff 75 f0             	pushl  -0x10(%ebp)
c0004eda:	e8 63 cc ff ff       	call   c0001b42 <intr_set_status>
c0004edf:	83 c4 10             	add    $0x10,%esp
c0004ee2:	90                   	nop
c0004ee3:	8b 5d fc             	mov    -0x4(%ebp),%ebx
c0004ee6:	c9                   	leave  
c0004ee7:	c3                   	ret    
